
TelemetryBoardFirmware.elf:     file format elf32-littlearm

Sections:
Idx Name          Size      VMA       LMA       File off  Algn
  0 .isr_vector   000001f4  08000000  08000000  00010000  2**0
                  CONTENTS, ALLOC, LOAD, READONLY, DATA
  1 .text         0000458c  080001f4  080001f4  000101f4  2**2
                  CONTENTS, ALLOC, LOAD, READONLY, CODE
  2 .rodata       00000098  08004780  08004780  00014780  2**2
                  CONTENTS, ALLOC, LOAD, READONLY, DATA
  3 .ARM.extab    00000000  08004818  08004818  00020184  2**0
                  CONTENTS
  4 .ARM          00000000  08004818  08004818  00020184  2**0
                  CONTENTS
  5 .preinit_array 00000000  08004818  08004818  00020184  2**0
                  CONTENTS, ALLOC, LOAD, DATA
  6 .init_array   00000004  08004818  08004818  00014818  2**2
                  CONTENTS, ALLOC, LOAD, DATA
  7 .fini_array   00000004  0800481c  0800481c  0001481c  2**2
                  CONTENTS, ALLOC, LOAD, DATA
  8 .data         00000184  20000000  08004820  00020000  2**2
                  CONTENTS, ALLOC, LOAD, DATA
  9 .bss          00001b80  20000184  080049a4  00020184  2**2
                  ALLOC
 10 ._user_heap_stack 00000604  20001d04  080049a4  00021d04  2**0
                  ALLOC
 11 .ARM.attributes 00000036  00000000  00000000  00020184  2**0
                  CONTENTS, READONLY
 12 .comment      00000053  00000000  00000000  000201ba  2**0
                  CONTENTS, READONLY
 13 .debug_frame  0000004c  00000000  00000000  00020210  2**2
                  CONTENTS, READONLY, DEBUGGING, OCTETS

Disassembly of section .text:

080001f4 <__do_global_dtors_aux>:
 80001f4:	b510      	push	{r4, lr}
 80001f6:	4c05      	ldr	r4, [pc, #20]	; (800020c <__do_global_dtors_aux+0x18>)
 80001f8:	7823      	ldrb	r3, [r4, #0]
 80001fa:	b933      	cbnz	r3, 800020a <__do_global_dtors_aux+0x16>
 80001fc:	4b04      	ldr	r3, [pc, #16]	; (8000210 <__do_global_dtors_aux+0x1c>)
 80001fe:	b113      	cbz	r3, 8000206 <__do_global_dtors_aux+0x12>
 8000200:	4804      	ldr	r0, [pc, #16]	; (8000214 <__do_global_dtors_aux+0x20>)
 8000202:	e000      	b.n	8000206 <__do_global_dtors_aux+0x12>
 8000204:	bf00      	nop
 8000206:	2301      	movs	r3, #1
 8000208:	7023      	strb	r3, [r4, #0]
 800020a:	bd10      	pop	{r4, pc}
 800020c:	20000184 	.word	0x20000184
 8000210:	00000000 	.word	0x00000000
 8000214:	08004768 	.word	0x08004768

08000218 <frame_dummy>:
 8000218:	b508      	push	{r3, lr}
 800021a:	4b03      	ldr	r3, [pc, #12]	; (8000228 <frame_dummy+0x10>)
 800021c:	b11b      	cbz	r3, 8000226 <frame_dummy+0xe>
 800021e:	4903      	ldr	r1, [pc, #12]	; (800022c <frame_dummy+0x14>)
 8000220:	4803      	ldr	r0, [pc, #12]	; (8000230 <frame_dummy+0x18>)
 8000222:	e000      	b.n	8000226 <frame_dummy+0xe>
 8000224:	bf00      	nop
 8000226:	bd08      	pop	{r3, pc}
 8000228:	00000000 	.word	0x00000000
 800022c:	20000188 	.word	0x20000188
 8000230:	08004768 	.word	0x08004768

08000234 <SystemClock_Config>:
 8000234:	b510      	push	{r4, lr}
 8000236:	2414      	movs	r4, #20
 8000238:	b098      	sub	sp, #96	; 0x60
 800023a:	2248      	movs	r2, #72	; 0x48
 800023c:	2100      	movs	r1, #0
 800023e:	a806      	add	r0, sp, #24
 8000240:	f004 fa8a 	bl	8004758 <memset>
 8000244:	4622      	mov	r2, r4
 8000246:	2100      	movs	r1, #0
 8000248:	a801      	add	r0, sp, #4
 800024a:	f004 fa85 	bl	8004758 <memset>
 800024e:	f44f 6080 	mov.w	r0, #1024	; 0x400
 8000252:	f001 fb45 	bl	80018e0 <HAL_PWREx_ControlVoltageScaling>
 8000256:	b108      	cbz	r0, 800025c <SystemClock_Config+0x28>
 8000258:	b672      	cpsid	i
 800025a:	e7fe      	b.n	800025a <SystemClock_Config+0x26>
 800025c:	2385      	movs	r3, #133	; 0x85
 800025e:	9308      	str	r3, [sp, #32]
 8000260:	2301      	movs	r3, #1
 8000262:	e9cd 300d 	strd	r3, r0, [sp, #52]	; 0x34
 8000266:	2360      	movs	r3, #96	; 0x60
 8000268:	9011      	str	r0, [sp, #68]	; 0x44
 800026a:	a806      	add	r0, sp, #24
 800026c:	9406      	str	r4, [sp, #24]
 800026e:	930f      	str	r3, [sp, #60]	; 0x3c
 8000270:	f001 fc10 	bl	8001a94 <HAL_RCC_OscConfig>
 8000274:	4601      	mov	r1, r0
 8000276:	b108      	cbz	r0, 800027c <SystemClock_Config+0x48>
 8000278:	b672      	cpsid	i
 800027a:	e7fe      	b.n	800027a <SystemClock_Config+0x46>
 800027c:	230f      	movs	r3, #15
 800027e:	e9cd 0003 	strd	r0, r0, [sp, #12]
 8000282:	e9cd 3001 	strd	r3, r0, [sp, #4]
 8000286:	9005      	str	r0, [sp, #20]
 8000288:	a801      	add	r0, sp, #4
 800028a:	f001 ff25 	bl	80020d8 <HAL_RCC_ClockConfig>
 800028e:	b108      	cbz	r0, 8000294 <SystemClock_Config+0x60>
 8000290:	b672      	cpsid	i
 8000292:	e7fe      	b.n	8000292 <SystemClock_Config+0x5e>
 8000294:	f002 fb4e 	bl	8002934 <HAL_RCCEx_EnableMSIPLLMode>
 8000298:	b018      	add	sp, #96	; 0x60
 800029a:	bd10      	pop	{r4, pc}

0800029c <main>:
 800029c:	b58f      	push	{r0, r1, r2, r3, r7, lr}
 800029e:	f000 fa6d 	bl	800077c <HAL_Init>
 80002a2:	f7ff ffc7 	bl	8000234 <SystemClock_Config>
 80002a6:	4b4d      	ldr	r3, [pc, #308]	; (80003dc <main+0x140>)
 80002a8:	4c4d      	ldr	r4, [pc, #308]	; (80003e0 <main+0x144>)
 80002aa:	6cda      	ldr	r2, [r3, #76]	; 0x4c
 80002ac:	4620      	mov	r0, r4
 80002ae:	f042 0204 	orr.w	r2, r2, #4
 80002b2:	64da      	str	r2, [r3, #76]	; 0x4c
 80002b4:	6cda      	ldr	r2, [r3, #76]	; 0x4c
 80002b6:	f002 0204 	and.w	r2, r2, #4
 80002ba:	9200      	str	r2, [sp, #0]
 80002bc:	9a00      	ldr	r2, [sp, #0]
 80002be:	6cda      	ldr	r2, [r3, #76]	; 0x4c
 80002c0:	f042 0280 	orr.w	r2, r2, #128	; 0x80
 80002c4:	64da      	str	r2, [r3, #76]	; 0x4c
 80002c6:	6cda      	ldr	r2, [r3, #76]	; 0x4c
 80002c8:	f002 0280 	and.w	r2, r2, #128	; 0x80
 80002cc:	9201      	str	r2, [sp, #4]
 80002ce:	9a01      	ldr	r2, [sp, #4]
 80002d0:	6cda      	ldr	r2, [r3, #76]	; 0x4c
 80002d2:	f042 0201 	orr.w	r2, r2, #1
 80002d6:	64da      	str	r2, [r3, #76]	; 0x4c
 80002d8:	6cda      	ldr	r2, [r3, #76]	; 0x4c
 80002da:	f002 0201 	and.w	r2, r2, #1
 80002de:	9202      	str	r2, [sp, #8]
 80002e0:	9a02      	ldr	r2, [sp, #8]
 80002e2:	6cda      	ldr	r2, [r3, #76]	; 0x4c
 80002e4:	f042 0202 	orr.w	r2, r2, #2
 80002e8:	64da      	str	r2, [r3, #76]	; 0x4c
 80002ea:	6cdb      	ldr	r3, [r3, #76]	; 0x4c
 80002ec:	4a3d      	ldr	r2, [pc, #244]	; (80003e4 <main+0x148>)
 80002ee:	f003 0302 	and.w	r3, r3, #2
 80002f2:	9303      	str	r3, [sp, #12]
 80002f4:	9b03      	ldr	r3, [sp, #12]
 80002f6:	f640 6314 	movw	r3, #3604	; 0xe14
 80002fa:	e9c4 2300 	strd	r2, r3, [r4]
 80002fe:	2300      	movs	r3, #0
 8000300:	2201      	movs	r2, #1
 8000302:	e9c4 3304 	strd	r3, r3, [r4, #16]
 8000306:	e9c4 3202 	strd	r3, r2, [r4, #8]
 800030a:	e9c4 3306 	strd	r3, r3, [r4, #24]
 800030e:	6223      	str	r3, [r4, #32]
 8000310:	f000 fb88 	bl	8000a24 <HAL_I2C_Init>
 8000314:	4601      	mov	r1, r0
 8000316:	b108      	cbz	r0, 800031c <main+0x80>
 8000318:	b672      	cpsid	i
 800031a:	e7fe      	b.n	800031a <main+0x7e>
 800031c:	4620      	mov	r0, r4
 800031e:	f000 fbd2 	bl	8000ac6 <HAL_I2CEx_ConfigAnalogFilter>
 8000322:	4601      	mov	r1, r0
 8000324:	b108      	cbz	r0, 800032a <main+0x8e>
 8000326:	b672      	cpsid	i
 8000328:	e7fe      	b.n	8000328 <main+0x8c>
 800032a:	4620      	mov	r0, r4
 800032c:	f000 fbf1 	bl	8000b12 <HAL_I2CEx_ConfigDigitalFilter>
 8000330:	4603      	mov	r3, r0
 8000332:	b108      	cbz	r0, 8000338 <main+0x9c>
 8000334:	b672      	cpsid	i
 8000336:	e7fe      	b.n	8000336 <main+0x9a>
 8000338:	f44f 7882 	mov.w	r8, #260	; 0x104
 800033c:	f44f 7740 	mov.w	r7, #768	; 0x300
 8000340:	f44f 7600 	mov.w	r6, #512	; 0x200
 8000344:	2507      	movs	r5, #7
 8000346:	2408      	movs	r4, #8
 8000348:	4827      	ldr	r0, [pc, #156]	; (80003e8 <main+0x14c>)
 800034a:	4a28      	ldr	r2, [pc, #160]	; (80003ec <main+0x150>)
 800034c:	e9c0 7303 	strd	r7, r3, [r0, #12]
 8000350:	e9c0 6306 	strd	r6, r3, [r0, #24]
 8000354:	e9c0 3308 	strd	r3, r3, [r0, #32]
 8000358:	e9c0 530b 	strd	r5, r3, [r0, #44]	; 0x2c
 800035c:	6083      	str	r3, [r0, #8]
 800035e:	6143      	str	r3, [r0, #20]
 8000360:	6283      	str	r3, [r0, #40]	; 0x28
 8000362:	e9c0 2800 	strd	r2, r8, [r0]
 8000366:	6344      	str	r4, [r0, #52]	; 0x34
 8000368:	f002 faec 	bl	8002944 <HAL_SPI_Init>
 800036c:	4603      	mov	r3, r0
 800036e:	b108      	cbz	r0, 8000374 <main+0xd8>
 8000370:	b672      	cpsid	i
 8000372:	e7fe      	b.n	8000372 <main+0xd6>
 8000374:	481e      	ldr	r0, [pc, #120]	; (80003f0 <main+0x154>)
 8000376:	4a1f      	ldr	r2, [pc, #124]	; (80003f4 <main+0x158>)
 8000378:	e9c0 3702 	strd	r3, r7, [r0, #8]
 800037c:	e9c0 3304 	strd	r3, r3, [r0, #16]
 8000380:	e9c0 6306 	strd	r6, r3, [r0, #24]
 8000384:	e9c0 3308 	strd	r3, r3, [r0, #32]
 8000388:	e9c0 350a 	strd	r3, r5, [r0, #40]	; 0x28
 800038c:	e9c0 340c 	strd	r3, r4, [r0, #48]	; 0x30
 8000390:	e9c0 2800 	strd	r2, r8, [r0]
 8000394:	f002 fad6 	bl	8002944 <HAL_SPI_Init>
 8000398:	4603      	mov	r3, r0
 800039a:	b108      	cbz	r0, 80003a0 <main+0x104>
 800039c:	b672      	cpsid	i
 800039e:	e7fe      	b.n	800039e <main+0x102>
 80003a0:	4815      	ldr	r0, [pc, #84]	; (80003f8 <main+0x15c>)
 80003a2:	4a16      	ldr	r2, [pc, #88]	; (80003fc <main+0x160>)
 80003a4:	e9c0 3702 	strd	r3, r7, [r0, #8]
 80003a8:	e9c0 2800 	strd	r2, r8, [r0]
 80003ac:	e9c0 3304 	strd	r3, r3, [r0, #16]
 80003b0:	e9c0 6306 	strd	r6, r3, [r0, #24]
 80003b4:	e9c0 3308 	strd	r3, r3, [r0, #32]
 80003b8:	e9c0 350a 	strd	r3, r5, [r0, #40]	; 0x28
 80003bc:	e9c0 340c 	strd	r3, r4, [r0, #48]	; 0x30
 80003c0:	f002 fac0 	bl	8002944 <HAL_SPI_Init>
 80003c4:	b108      	cbz	r0, 80003ca <main+0x12e>
 80003c6:	b672      	cpsid	i
 80003c8:	e7fe      	b.n	80003c8 <main+0x12c>
 80003ca:	f003 ff31 	bl	8004230 <MX_USB_Device_Init>
 80003ce:	f000 fbc5 	bl	8000b5c <HAL_ICACHE_Enable>
 80003d2:	b108      	cbz	r0, 80003d8 <main+0x13c>
 80003d4:	b672      	cpsid	i
 80003d6:	e7fe      	b.n	80003d6 <main+0x13a>
 80003d8:	e7fe      	b.n	80003d8 <main+0x13c>
 80003da:	bf00      	nop
 80003dc:	40021000 	.word	0x40021000
 80003e0:	20000428 	.word	0x20000428
 80003e4:	40005400 	.word	0x40005400
 80003e8:	200004d8 	.word	0x200004d8
 80003ec:	40013000 	.word	0x40013000
 80003f0:	200003c4 	.word	0x200003c4
 80003f4:	40003800 	.word	0x40003800
 80003f8:	20000474 	.word	0x20000474
 80003fc:	40003c00 	.word	0x40003c00

08000400 <Error_Handler>:
 8000400:	b672      	cpsid	i
 8000402:	e7fe      	b.n	8000402 <Error_Handler+0x2>

08000404 <HAL_MspInit>:
 8000404:	4b0b      	ldr	r3, [pc, #44]	; (8000434 <HAL_MspInit+0x30>)
 8000406:	b082      	sub	sp, #8
 8000408:	6e1a      	ldr	r2, [r3, #96]	; 0x60
 800040a:	f042 0201 	orr.w	r2, r2, #1
 800040e:	661a      	str	r2, [r3, #96]	; 0x60
 8000410:	6e1a      	ldr	r2, [r3, #96]	; 0x60
 8000412:	f002 0201 	and.w	r2, r2, #1
 8000416:	9200      	str	r2, [sp, #0]
 8000418:	9a00      	ldr	r2, [sp, #0]
 800041a:	6d9a      	ldr	r2, [r3, #88]	; 0x58
 800041c:	f042 5280 	orr.w	r2, r2, #268435456	; 0x10000000
 8000420:	659a      	str	r2, [r3, #88]	; 0x58
 8000422:	6d9b      	ldr	r3, [r3, #88]	; 0x58
 8000424:	f003 5380 	and.w	r3, r3, #268435456	; 0x10000000
 8000428:	9301      	str	r3, [sp, #4]
 800042a:	9b01      	ldr	r3, [sp, #4]
 800042c:	b002      	add	sp, #8
 800042e:	f001 ba3f 	b.w	80018b0 <HAL_PWREx_DisableUCPDDeadBattery>
 8000432:	bf00      	nop
 8000434:	40021000 	.word	0x40021000

08000438 <HAL_I2C_MspInit>:
 8000438:	b510      	push	{r4, lr}
 800043a:	4604      	mov	r4, r0
 800043c:	b0ac      	sub	sp, #176	; 0xb0
 800043e:	2214      	movs	r2, #20
 8000440:	2100      	movs	r1, #0
 8000442:	a802      	add	r0, sp, #8
 8000444:	f004 f988 	bl	8004758 <memset>
 8000448:	2294      	movs	r2, #148	; 0x94
 800044a:	2100      	movs	r1, #0
 800044c:	a807      	add	r0, sp, #28
 800044e:	f004 f983 	bl	8004758 <memset>
 8000452:	6822      	ldr	r2, [r4, #0]
 8000454:	4b17      	ldr	r3, [pc, #92]	; (80004b4 <HAL_I2C_MspInit+0x7c>)
 8000456:	429a      	cmp	r2, r3
 8000458:	d129      	bne.n	80004ae <HAL_I2C_MspInit+0x76>
 800045a:	2340      	movs	r3, #64	; 0x40
 800045c:	9307      	str	r3, [sp, #28]
 800045e:	2300      	movs	r3, #0
 8000460:	a807      	add	r0, sp, #28
 8000462:	931a      	str	r3, [sp, #104]	; 0x68
 8000464:	f002 f812 	bl	800248c <HAL_RCCEx_PeriphCLKConfig>
 8000468:	b108      	cbz	r0, 800046e <HAL_I2C_MspInit+0x36>
 800046a:	f7ff ffc9 	bl	8000400 <Error_Handler>
 800046e:	4c12      	ldr	r4, [pc, #72]	; (80004b8 <HAL_I2C_MspInit+0x80>)
 8000470:	22c0      	movs	r2, #192	; 0xc0
 8000472:	6ce3      	ldr	r3, [r4, #76]	; 0x4c
 8000474:	4811      	ldr	r0, [pc, #68]	; (80004bc <HAL_I2C_MspInit+0x84>)
 8000476:	f043 0302 	orr.w	r3, r3, #2
 800047a:	64e3      	str	r3, [r4, #76]	; 0x4c
 800047c:	6ce3      	ldr	r3, [r4, #76]	; 0x4c
 800047e:	a902      	add	r1, sp, #8
 8000480:	f003 0302 	and.w	r3, r3, #2
 8000484:	9300      	str	r3, [sp, #0]
 8000486:	9b00      	ldr	r3, [sp, #0]
 8000488:	2312      	movs	r3, #18
 800048a:	e9cd 2302 	strd	r2, r3, [sp, #8]
 800048e:	2300      	movs	r3, #0
 8000490:	e9cd 3304 	strd	r3, r3, [sp, #16]
 8000494:	2304      	movs	r3, #4
 8000496:	9306      	str	r3, [sp, #24]
 8000498:	f000 f9fa 	bl	8000890 <HAL_GPIO_Init>
 800049c:	6da3      	ldr	r3, [r4, #88]	; 0x58
 800049e:	f443 1300 	orr.w	r3, r3, #2097152	; 0x200000
 80004a2:	65a3      	str	r3, [r4, #88]	; 0x58
 80004a4:	6da3      	ldr	r3, [r4, #88]	; 0x58
 80004a6:	f403 1300 	and.w	r3, r3, #2097152	; 0x200000
 80004aa:	9301      	str	r3, [sp, #4]
 80004ac:	9b01      	ldr	r3, [sp, #4]
 80004ae:	b02c      	add	sp, #176	; 0xb0
 80004b0:	bd10      	pop	{r4, pc}
 80004b2:	bf00      	nop
 80004b4:	40005400 	.word	0x40005400
 80004b8:	40021000 	.word	0x40021000
 80004bc:	42020400 	.word	0x42020400

080004c0 <HAL_SPI_MspInit>:
 80004c0:	b570      	push	{r4, r5, r6, lr}
 80004c2:	4604      	mov	r4, r0
 80004c4:	b08c      	sub	sp, #48	; 0x30
 80004c6:	2214      	movs	r2, #20
 80004c8:	2100      	movs	r1, #0
 80004ca:	a807      	add	r0, sp, #28
 80004cc:	f004 f944 	bl	8004758 <memset>
 80004d0:	6823      	ldr	r3, [r4, #0]
 80004d2:	4a44      	ldr	r2, [pc, #272]	; (80005e4 <HAL_SPI_MspInit+0x124>)
 80004d4:	4293      	cmp	r3, r2
 80004d6:	d121      	bne.n	800051c <HAL_SPI_MspInit+0x5c>
 80004d8:	4b43      	ldr	r3, [pc, #268]	; (80005e8 <HAL_SPI_MspInit+0x128>)
 80004da:	21c2      	movs	r1, #194	; 0xc2
 80004dc:	6e1a      	ldr	r2, [r3, #96]	; 0x60
 80004de:	4843      	ldr	r0, [pc, #268]	; (80005ec <HAL_SPI_MspInit+0x12c>)
 80004e0:	f442 5280 	orr.w	r2, r2, #4096	; 0x1000
 80004e4:	661a      	str	r2, [r3, #96]	; 0x60
 80004e6:	6e1a      	ldr	r2, [r3, #96]	; 0x60
 80004e8:	f402 5280 	and.w	r2, r2, #4096	; 0x1000
 80004ec:	9200      	str	r2, [sp, #0]
 80004ee:	9a00      	ldr	r2, [sp, #0]
 80004f0:	6cda      	ldr	r2, [r3, #76]	; 0x4c
 80004f2:	f042 0201 	orr.w	r2, r2, #1
 80004f6:	64da      	str	r2, [r3, #76]	; 0x4c
 80004f8:	6cdb      	ldr	r3, [r3, #76]	; 0x4c
 80004fa:	f003 0301 	and.w	r3, r3, #1
 80004fe:	9301      	str	r3, [sp, #4]
 8000500:	9b01      	ldr	r3, [sp, #4]
 8000502:	2302      	movs	r3, #2
 8000504:	e9cd 1307 	strd	r1, r3, [sp, #28]
 8000508:	2300      	movs	r3, #0
 800050a:	e9cd 3309 	strd	r3, r3, [sp, #36]	; 0x24
 800050e:	2305      	movs	r3, #5
 8000510:	a907      	add	r1, sp, #28
 8000512:	930b      	str	r3, [sp, #44]	; 0x2c
 8000514:	f000 f9bc 	bl	8000890 <HAL_GPIO_Init>
 8000518:	b00c      	add	sp, #48	; 0x30
 800051a:	bd70      	pop	{r4, r5, r6, pc}
 800051c:	4a34      	ldr	r2, [pc, #208]	; (80005f0 <HAL_SPI_MspInit+0x130>)
 800051e:	4293      	cmp	r3, r2
 8000520:	d13c      	bne.n	800059c <HAL_SPI_MspInit+0xdc>
 8000522:	4b31      	ldr	r3, [pc, #196]	; (80005e8 <HAL_SPI_MspInit+0x128>)
 8000524:	2502      	movs	r5, #2
 8000526:	6d9a      	ldr	r2, [r3, #88]	; 0x58
 8000528:	2400      	movs	r4, #0
 800052a:	f442 4280 	orr.w	r2, r2, #16384	; 0x4000
 800052e:	659a      	str	r2, [r3, #88]	; 0x58
 8000530:	6d9a      	ldr	r2, [r3, #88]	; 0x58
 8000532:	4830      	ldr	r0, [pc, #192]	; (80005f4 <HAL_SPI_MspInit+0x134>)
 8000534:	f402 4280 	and.w	r2, r2, #16384	; 0x4000
 8000538:	9202      	str	r2, [sp, #8]
 800053a:	9a02      	ldr	r2, [sp, #8]
 800053c:	6cda      	ldr	r2, [r3, #76]	; 0x4c
 800053e:	a907      	add	r1, sp, #28
 8000540:	f042 0204 	orr.w	r2, r2, #4
 8000544:	64da      	str	r2, [r3, #76]	; 0x4c
 8000546:	6cda      	ldr	r2, [r3, #76]	; 0x4c
 8000548:	2605      	movs	r6, #5
 800054a:	f002 0204 	and.w	r2, r2, #4
 800054e:	9203      	str	r2, [sp, #12]
 8000550:	9a03      	ldr	r2, [sp, #12]
 8000552:	6cda      	ldr	r2, [r3, #76]	; 0x4c
 8000554:	f042 0202 	orr.w	r2, r2, #2
 8000558:	64da      	str	r2, [r3, #76]	; 0x4c
 800055a:	6cdb      	ldr	r3, [r3, #76]	; 0x4c
 800055c:	e9cd 5507 	strd	r5, r5, [sp, #28]
 8000560:	f003 0302 	and.w	r3, r3, #2
 8000564:	9304      	str	r3, [sp, #16]
 8000566:	9b04      	ldr	r3, [sp, #16]
 8000568:	2303      	movs	r3, #3
 800056a:	e9cd 4409 	strd	r4, r4, [sp, #36]	; 0x24
 800056e:	930b      	str	r3, [sp, #44]	; 0x2c
 8000570:	f000 f98e 	bl	8000890 <HAL_GPIO_Init>
 8000574:	2304      	movs	r3, #4
 8000576:	481f      	ldr	r0, [pc, #124]	; (80005f4 <HAL_SPI_MspInit+0x134>)
 8000578:	a907      	add	r1, sp, #28
 800057a:	e9cd 3507 	strd	r3, r5, [sp, #28]
 800057e:	e9cd 4409 	strd	r4, r4, [sp, #36]	; 0x24
 8000582:	960b      	str	r6, [sp, #44]	; 0x2c
 8000584:	f000 f984 	bl	8000890 <HAL_GPIO_Init>
 8000588:	f44f 6380 	mov.w	r3, #1024	; 0x400
 800058c:	e9cd 4409 	strd	r4, r4, [sp, #36]	; 0x24
 8000590:	e9cd 3507 	strd	r3, r5, [sp, #28]
 8000594:	4818      	ldr	r0, [pc, #96]	; (80005f8 <HAL_SPI_MspInit+0x138>)
 8000596:	960b      	str	r6, [sp, #44]	; 0x2c
 8000598:	a907      	add	r1, sp, #28
 800059a:	e7bb      	b.n	8000514 <HAL_SPI_MspInit+0x54>
 800059c:	4a17      	ldr	r2, [pc, #92]	; (80005fc <HAL_SPI_MspInit+0x13c>)
 800059e:	4293      	cmp	r3, r2
 80005a0:	d1ba      	bne.n	8000518 <HAL_SPI_MspInit+0x58>
 80005a2:	4b11      	ldr	r3, [pc, #68]	; (80005e8 <HAL_SPI_MspInit+0x128>)
 80005a4:	4813      	ldr	r0, [pc, #76]	; (80005f4 <HAL_SPI_MspInit+0x134>)
 80005a6:	6d9a      	ldr	r2, [r3, #88]	; 0x58
 80005a8:	a907      	add	r1, sp, #28
 80005aa:	f442 4200 	orr.w	r2, r2, #32768	; 0x8000
 80005ae:	659a      	str	r2, [r3, #88]	; 0x58
 80005b0:	6d9a      	ldr	r2, [r3, #88]	; 0x58
 80005b2:	f402 4200 	and.w	r2, r2, #32768	; 0x8000
 80005b6:	9205      	str	r2, [sp, #20]
 80005b8:	9a05      	ldr	r2, [sp, #20]
 80005ba:	6cda      	ldr	r2, [r3, #76]	; 0x4c
 80005bc:	f042 0204 	orr.w	r2, r2, #4
 80005c0:	64da      	str	r2, [r3, #76]	; 0x4c
 80005c2:	6cdb      	ldr	r3, [r3, #76]	; 0x4c
 80005c4:	f44f 52e0 	mov.w	r2, #7168	; 0x1c00
 80005c8:	f003 0304 	and.w	r3, r3, #4
 80005cc:	9306      	str	r3, [sp, #24]
 80005ce:	9b06      	ldr	r3, [sp, #24]
 80005d0:	2302      	movs	r3, #2
 80005d2:	e9cd 2307 	strd	r2, r3, [sp, #28]
 80005d6:	2300      	movs	r3, #0
 80005d8:	e9cd 3309 	strd	r3, r3, [sp, #36]	; 0x24
 80005dc:	2306      	movs	r3, #6
 80005de:	930b      	str	r3, [sp, #44]	; 0x2c
 80005e0:	e798      	b.n	8000514 <HAL_SPI_MspInit+0x54>
 80005e2:	bf00      	nop
 80005e4:	40013000 	.word	0x40013000
 80005e8:	40021000 	.word	0x40021000
 80005ec:	42020000 	.word	0x42020000
 80005f0:	40003800 	.word	0x40003800
 80005f4:	42020800 	.word	0x42020800
 80005f8:	42020400 	.word	0x42020400
 80005fc:	40003c00 	.word	0x40003c00

08000600 <NMI_Handler>:
 8000600:	e7fe      	b.n	8000600 <NMI_Handler>

08000602 <HardFault_Handler>:
 8000602:	e7fe      	b.n	8000602 <HardFault_Handler>

08000604 <MemManage_Handler>:
 8000604:	e7fe      	b.n	8000604 <MemManage_Handler>

08000606 <BusFault_Handler>:
 8000606:	e7fe      	b.n	8000606 <BusFault_Handler>

08000608 <UsageFault_Handler>:
 8000608:	e7fe      	b.n	8000608 <UsageFault_Handler>

0800060a <SVC_Handler>:
 800060a:	4770      	bx	lr

0800060c <DebugMon_Handler>:
 800060c:	4770      	bx	lr

0800060e <PendSV_Handler>:
 800060e:	4770      	bx	lr

08000610 <SysTick_Handler>:
 8000610:	f000 b8c6 	b.w	80007a0 <HAL_IncTick>

08000614 <USB_FS_IRQHandler>:
 8000614:	4801      	ldr	r0, [pc, #4]	; (800061c <USB_FS_IRQHandler+0x8>)
 8000616:	f000 bb33 	b.w	8000c80 <HAL_PCD_IRQHandler>
 800061a:	bf00      	nop
 800061c:	20001a10 	.word	0x20001a10

08000620 <SystemInit>:
 8000620:	4a03      	ldr	r2, [pc, #12]	; (8000630 <SystemInit+0x10>)
 8000622:	f8d2 3088 	ldr.w	r3, [r2, #136]	; 0x88
 8000626:	f443 0370 	orr.w	r3, r3, #15728640	; 0xf00000
 800062a:	f8c2 3088 	str.w	r3, [r2, #136]	; 0x88
 800062e:	4770      	bx	lr
 8000630:	e000ed00 	.word	0xe000ed00

08000634 <SystemCoreClockUpdate>:
 8000634:	4a23      	ldr	r2, [pc, #140]	; (80006c4 <SystemCoreClockUpdate+0x90>)
 8000636:	4924      	ldr	r1, [pc, #144]	; (80006c8 <SystemCoreClockUpdate+0x94>)
 8000638:	6813      	ldr	r3, [r2, #0]
 800063a:	b510      	push	{r4, lr}
 800063c:	071b      	lsls	r3, r3, #28
 800063e:	bf55      	itete	pl
 8000640:	f8d2 3094 	ldrpl.w	r3, [r2, #148]	; 0x94
 8000644:	6813      	ldrmi	r3, [r2, #0]
 8000646:	f3c3 2303 	ubfxpl	r3, r3, #8, #4
 800064a:	f3c3 1303 	ubfxmi	r3, r3, #4, #4
 800064e:	f851 4023 	ldr.w	r4, [r1, r3, lsl #2]
 8000652:	6891      	ldr	r1, [r2, #8]
 8000654:	481d      	ldr	r0, [pc, #116]	; (80006cc <SystemCoreClockUpdate+0x98>)
 8000656:	f001 010c 	and.w	r1, r1, #12
 800065a:	2908      	cmp	r1, #8
 800065c:	d00e      	beq.n	800067c <SystemCoreClockUpdate+0x48>
 800065e:	290c      	cmp	r1, #12
 8000660:	d00e      	beq.n	8000680 <SystemCoreClockUpdate+0x4c>
 8000662:	2904      	cmp	r1, #4
 8000664:	d12c      	bne.n	80006c0 <SystemCoreClockUpdate+0x8c>
 8000666:	4b1a      	ldr	r3, [pc, #104]	; (80006d0 <SystemCoreClockUpdate+0x9c>)
 8000668:	6003      	str	r3, [r0, #0]
 800066a:	6893      	ldr	r3, [r2, #8]
 800066c:	4a19      	ldr	r2, [pc, #100]	; (80006d4 <SystemCoreClockUpdate+0xa0>)
 800066e:	f3c3 1303 	ubfx	r3, r3, #4, #4
 8000672:	5cd2      	ldrb	r2, [r2, r3]
 8000674:	6803      	ldr	r3, [r0, #0]
 8000676:	40d3      	lsrs	r3, r2
 8000678:	6003      	str	r3, [r0, #0]
 800067a:	bd10      	pop	{r4, pc}
 800067c:	4b16      	ldr	r3, [pc, #88]	; (80006d8 <SystemCoreClockUpdate+0xa4>)
 800067e:	e7f3      	b.n	8000668 <SystemCoreClockUpdate+0x34>
 8000680:	68d1      	ldr	r1, [r2, #12]
 8000682:	68d3      	ldr	r3, [r2, #12]
 8000684:	f001 0103 	and.w	r1, r1, #3
 8000688:	f3c3 1303 	ubfx	r3, r3, #4, #4
 800068c:	2902      	cmp	r1, #2
 800068e:	f103 0301 	add.w	r3, r3, #1
 8000692:	d004      	beq.n	800069e <SystemCoreClockUpdate+0x6a>
 8000694:	2903      	cmp	r1, #3
 8000696:	d011      	beq.n	80006bc <SystemCoreClockUpdate+0x88>
 8000698:	fbb4 f3f3 	udiv	r3, r4, r3
 800069c:	e002      	b.n	80006a4 <SystemCoreClockUpdate+0x70>
 800069e:	490c      	ldr	r1, [pc, #48]	; (80006d0 <SystemCoreClockUpdate+0x9c>)
 80006a0:	fbb1 f3f3 	udiv	r3, r1, r3
 80006a4:	68d4      	ldr	r4, [r2, #12]
 80006a6:	68d1      	ldr	r1, [r2, #12]
 80006a8:	f3c4 2406 	ubfx	r4, r4, #8, #7
 80006ac:	4363      	muls	r3, r4
 80006ae:	f3c1 6141 	ubfx	r1, r1, #25, #2
 80006b2:	3101      	adds	r1, #1
 80006b4:	0049      	lsls	r1, r1, #1
 80006b6:	fbb3 f3f1 	udiv	r3, r3, r1
 80006ba:	e7d5      	b.n	8000668 <SystemCoreClockUpdate+0x34>
 80006bc:	4906      	ldr	r1, [pc, #24]	; (80006d8 <SystemCoreClockUpdate+0xa4>)
 80006be:	e7ef      	b.n	80006a0 <SystemCoreClockUpdate+0x6c>
 80006c0:	6004      	str	r4, [r0, #0]
 80006c2:	e7d2      	b.n	800066a <SystemCoreClockUpdate+0x36>
 80006c4:	40021000 	.word	0x40021000
 80006c8:	08004790 	.word	0x08004790
 80006cc:	20000000 	.word	0x20000000
 80006d0:	00f42400 	.word	0x00f42400
 80006d4:	08004780 	.word	0x08004780
 80006d8:	01e84800 	.word	0x01e84800

080006dc <Reset_Handler>:
 80006dc:	f8df d034 	ldr.w	sp, [pc, #52]	; 8000714 <LoopForever+0x2>
 80006e0:	f7ff ff9e 	bl	8000620 <SystemInit>
 80006e4:	2100      	movs	r1, #0
 80006e6:	e003      	b.n	80006f0 <LoopCopyDataInit>

080006e8 <CopyDataInit>:
 80006e8:	4b0b      	ldr	r3, [pc, #44]	; (8000718 <LoopForever+0x6>)
 80006ea:	585b      	ldr	r3, [r3, r1]
 80006ec:	5043      	str	r3, [r0, r1]
 80006ee:	3104      	adds	r1, #4

080006f0 <LoopCopyDataInit>:
 80006f0:	480a      	ldr	r0, [pc, #40]	; (800071c <LoopForever+0xa>)
 80006f2:	4b0b      	ldr	r3, [pc, #44]	; (8000720 <LoopForever+0xe>)
 80006f4:	1842      	adds	r2, r0, r1
 80006f6:	429a      	cmp	r2, r3
 80006f8:	d3f6      	bcc.n	80006e8 <CopyDataInit>
 80006fa:	4a0a      	ldr	r2, [pc, #40]	; (8000724 <LoopForever+0x12>)
 80006fc:	e002      	b.n	8000704 <LoopFillZerobss>

080006fe <FillZerobss>:
 80006fe:	2300      	movs	r3, #0
 8000700:	f842 3b04 	str.w	r3, [r2], #4

08000704 <LoopFillZerobss>:
 8000704:	4b08      	ldr	r3, [pc, #32]	; (8000728 <LoopForever+0x16>)
 8000706:	429a      	cmp	r2, r3
 8000708:	d3f9      	bcc.n	80006fe <FillZerobss>
 800070a:	f004 f801 	bl	8004710 <__libc_init_array>
 800070e:	f7ff fdc5 	bl	800029c <main>

08000712 <LoopForever>:
 8000712:	e7fe      	b.n	8000712 <LoopForever>
 8000714:	20040000 	.word	0x20040000
 8000718:	08004820 	.word	0x08004820
 800071c:	20000000 	.word	0x20000000
 8000720:	20000184 	.word	0x20000184
 8000724:	20000184 	.word	0x20000184
 8000728:	20001d04 	.word	0x20001d04

0800072c <ADC1_2_IRQHandler>:
 800072c:	e7fe      	b.n	800072c <ADC1_2_IRQHandler>
	...

08000730 <HAL_InitTick>:
 8000730:	b538      	push	{r3, r4, r5, lr}
 8000732:	4b0f      	ldr	r3, [pc, #60]	; (8000770 <HAL_InitTick+0x40>)
 8000734:	4605      	mov	r5, r0
 8000736:	7818      	ldrb	r0, [r3, #0]
 8000738:	b908      	cbnz	r0, 800073e <HAL_InitTick+0xe>
 800073a:	2001      	movs	r0, #1
 800073c:	bd38      	pop	{r3, r4, r5, pc}
 800073e:	f44f 737a 	mov.w	r3, #1000	; 0x3e8
 8000742:	fbb3 f3f0 	udiv	r3, r3, r0
 8000746:	4a0b      	ldr	r2, [pc, #44]	; (8000774 <HAL_InitTick+0x44>)
 8000748:	6810      	ldr	r0, [r2, #0]
 800074a:	fbb0 f0f3 	udiv	r0, r0, r3
 800074e:	f000 f889 	bl	8000864 <HAL_SYSTICK_Config>
 8000752:	4604      	mov	r4, r0
 8000754:	2800      	cmp	r0, #0
 8000756:	d1f0      	bne.n	800073a <HAL_InitTick+0xa>
 8000758:	2d07      	cmp	r5, #7
 800075a:	d8ee      	bhi.n	800073a <HAL_InitTick+0xa>
 800075c:	4602      	mov	r2, r0
 800075e:	4629      	mov	r1, r5
 8000760:	f04f 30ff 	mov.w	r0, #4294967295
 8000764:	f000 f840 	bl	80007e8 <HAL_NVIC_SetPriority>
 8000768:	4b03      	ldr	r3, [pc, #12]	; (8000778 <HAL_InitTick+0x48>)
 800076a:	4620      	mov	r0, r4
 800076c:	601d      	str	r5, [r3, #0]
 800076e:	e7e5      	b.n	800073c <HAL_InitTick+0xc>
 8000770:	20000004 	.word	0x20000004
 8000774:	20000000 	.word	0x20000000
 8000778:	20000008 	.word	0x20000008

0800077c <HAL_Init>:
 800077c:	b510      	push	{r4, lr}
 800077e:	2004      	movs	r0, #4
 8000780:	f000 f820 	bl	80007c4 <HAL_NVIC_SetPriorityGrouping>
 8000784:	f7ff ff56 	bl	8000634 <SystemCoreClockUpdate>
 8000788:	2007      	movs	r0, #7
 800078a:	f7ff ffd1 	bl	8000730 <HAL_InitTick>
 800078e:	4604      	mov	r4, r0
 8000790:	b918      	cbnz	r0, 800079a <HAL_Init+0x1e>
 8000792:	f7ff fe37 	bl	8000404 <HAL_MspInit>
 8000796:	4620      	mov	r0, r4
 8000798:	bd10      	pop	{r4, pc}
 800079a:	2401      	movs	r4, #1
 800079c:	e7fb      	b.n	8000796 <HAL_Init+0x1a>
	...

080007a0 <HAL_IncTick>:
 80007a0:	4a03      	ldr	r2, [pc, #12]	; (80007b0 <HAL_IncTick+0x10>)
 80007a2:	4b04      	ldr	r3, [pc, #16]	; (80007b4 <HAL_IncTick+0x14>)
 80007a4:	6811      	ldr	r1, [r2, #0]
 80007a6:	781b      	ldrb	r3, [r3, #0]
 80007a8:	440b      	add	r3, r1
 80007aa:	6013      	str	r3, [r2, #0]
 80007ac:	4770      	bx	lr
 80007ae:	bf00      	nop
 80007b0:	2000053c 	.word	0x2000053c
 80007b4:	20000004 	.word	0x20000004

080007b8 <HAL_GetTick>:
 80007b8:	4b01      	ldr	r3, [pc, #4]	; (80007c0 <HAL_GetTick+0x8>)
 80007ba:	6818      	ldr	r0, [r3, #0]
 80007bc:	4770      	bx	lr
 80007be:	bf00      	nop
 80007c0:	2000053c 	.word	0x2000053c

080007c4 <HAL_NVIC_SetPriorityGrouping>:
 80007c4:	4907      	ldr	r1, [pc, #28]	; (80007e4 <HAL_NVIC_SetPriorityGrouping+0x20>)
 80007c6:	0203      	lsls	r3, r0, #8
 80007c8:	68ca      	ldr	r2, [r1, #12]
 80007ca:	f403 63e0 	and.w	r3, r3, #1792	; 0x700
 80007ce:	f422 62e0 	bic.w	r2, r2, #1792	; 0x700
 80007d2:	0412      	lsls	r2, r2, #16
 80007d4:	0c12      	lsrs	r2, r2, #16
 80007d6:	4313      	orrs	r3, r2
 80007d8:	f043 63bf 	orr.w	r3, r3, #100139008	; 0x5f80000
 80007dc:	f443 3300 	orr.w	r3, r3, #131072	; 0x20000
 80007e0:	60cb      	str	r3, [r1, #12]
 80007e2:	4770      	bx	lr
 80007e4:	e000ed00 	.word	0xe000ed00

080007e8 <HAL_NVIC_SetPriority>:
 80007e8:	4b15      	ldr	r3, [pc, #84]	; (8000840 <HAL_NVIC_SetPriority+0x58>)
 80007ea:	b530      	push	{r4, r5, lr}
 80007ec:	68dc      	ldr	r4, [r3, #12]
 80007ee:	f3c4 2402 	ubfx	r4, r4, #8, #3
 80007f2:	f1c4 0507 	rsb	r5, r4, #7
 80007f6:	1ce3      	adds	r3, r4, #3
 80007f8:	2d03      	cmp	r5, #3
 80007fa:	bf28      	it	cs
 80007fc:	2503      	movcs	r5, #3
 80007fe:	2b06      	cmp	r3, #6
 8000800:	f04f 33ff 	mov.w	r3, #4294967295
 8000804:	bf94      	ite	ls
 8000806:	2400      	movls	r4, #0
 8000808:	3c04      	subhi	r4, #4
 800080a:	fa03 f505 	lsl.w	r5, r3, r5
 800080e:	ea21 0105 	bic.w	r1, r1, r5
 8000812:	40a3      	lsls	r3, r4
 8000814:	ea22 0203 	bic.w	r2, r2, r3
 8000818:	40a1      	lsls	r1, r4
 800081a:	2800      	cmp	r0, #0
 800081c:	ea41 0302 	orr.w	r3, r1, r2
 8000820:	bfac      	ite	ge
 8000822:	f100 4060 	addge.w	r0, r0, #3758096384	; 0xe0000000
 8000826:	4a07      	ldrlt	r2, [pc, #28]	; (8000844 <HAL_NVIC_SetPriority+0x5c>)
 8000828:	ea4f 1343 	mov.w	r3, r3, lsl #5
 800082c:	b2db      	uxtb	r3, r3
 800082e:	bfab      	itete	ge
 8000830:	f500 4061 	addge.w	r0, r0, #57600	; 0xe100
 8000834:	f000 000f 	andlt.w	r0, r0, #15
 8000838:	f880 3300 	strbge.w	r3, [r0, #768]	; 0x300
 800083c:	5413      	strblt	r3, [r2, r0]
 800083e:	bd30      	pop	{r4, r5, pc}
 8000840:	e000ed00 	.word	0xe000ed00
 8000844:	e000ed14 	.word	0xe000ed14

08000848 <HAL_NVIC_EnableIRQ>:
 8000848:	2800      	cmp	r0, #0
 800084a:	db08      	blt.n	800085e <HAL_NVIC_EnableIRQ+0x16>
 800084c:	2301      	movs	r3, #1
 800084e:	0942      	lsrs	r2, r0, #5
 8000850:	f000 001f 	and.w	r0, r0, #31
 8000854:	fa03 f000 	lsl.w	r0, r3, r0
 8000858:	4b01      	ldr	r3, [pc, #4]	; (8000860 <HAL_NVIC_EnableIRQ+0x18>)
 800085a:	f843 0022 	str.w	r0, [r3, r2, lsl #2]
 800085e:	4770      	bx	lr
 8000860:	e000e100 	.word	0xe000e100

08000864 <HAL_SYSTICK_Config>:
 8000864:	3801      	subs	r0, #1
 8000866:	f1b0 7f80 	cmp.w	r0, #16777216	; 0x1000000
 800086a:	d20a      	bcs.n	8000882 <HAL_SYSTICK_Config+0x1e>
 800086c:	21e0      	movs	r1, #224	; 0xe0
 800086e:	4b06      	ldr	r3, [pc, #24]	; (8000888 <HAL_SYSTICK_Config+0x24>)
 8000870:	4a06      	ldr	r2, [pc, #24]	; (800088c <HAL_SYSTICK_Config+0x28>)
 8000872:	6058      	str	r0, [r3, #4]
 8000874:	f882 1023 	strb.w	r1, [r2, #35]	; 0x23
 8000878:	2000      	movs	r0, #0
 800087a:	2207      	movs	r2, #7
 800087c:	6098      	str	r0, [r3, #8]
 800087e:	601a      	str	r2, [r3, #0]
 8000880:	4770      	bx	lr
 8000882:	2001      	movs	r0, #1
 8000884:	4770      	bx	lr
 8000886:	bf00      	nop
 8000888:	e000e010 	.word	0xe000e010
 800088c:	e000ed00 	.word	0xe000ed00

08000890 <HAL_GPIO_Init>:
 8000890:	2300      	movs	r3, #0
 8000892:	e92d 4ff0 	stmdb	sp!, {r4, r5, r6, r7, r8, r9, sl, fp, lr}
 8000896:	4c5f      	ldr	r4, [pc, #380]	; (8000a14 <HAL_GPIO_Init+0x184>)
 8000898:	f8df 8180 	ldr.w	r8, [pc, #384]	; 8000a1c <HAL_GPIO_Init+0x18c>
 800089c:	f8df 9180 	ldr.w	r9, [pc, #384]	; 8000a20 <HAL_GPIO_Init+0x190>
 80008a0:	680a      	ldr	r2, [r1, #0]
 80008a2:	fa32 f503 	lsrs.w	r5, r2, r3
 80008a6:	d101      	bne.n	80008ac <HAL_GPIO_Init+0x1c>
 80008a8:	e8bd 8ff0 	ldmia.w	sp!, {r4, r5, r6, r7, r8, r9, sl, fp, pc}
 80008ac:	f04f 0c01 	mov.w	ip, #1
 80008b0:	fa0c fc03 	lsl.w	ip, ip, r3
 80008b4:	ea1c 0202 	ands.w	r2, ip, r2
 80008b8:	f000 809d 	beq.w	80009f6 <HAL_GPIO_Init+0x166>
 80008bc:	2603      	movs	r6, #3
 80008be:	684d      	ldr	r5, [r1, #4]
 80008c0:	ea4f 0e43 	mov.w	lr, r3, lsl #1
 80008c4:	f025 0a10 	bic.w	sl, r5, #16
 80008c8:	f10a 37ff 	add.w	r7, sl, #4294967295
 80008cc:	fa06 f60e 	lsl.w	r6, r6, lr
 80008d0:	2f01      	cmp	r7, #1
 80008d2:	ea6f 0606 	mvn.w	r6, r6
 80008d6:	d811      	bhi.n	80008fc <HAL_GPIO_Init+0x6c>
 80008d8:	6887      	ldr	r7, [r0, #8]
 80008da:	ea07 0b06 	and.w	fp, r7, r6
 80008de:	68cf      	ldr	r7, [r1, #12]
 80008e0:	fa07 f70e 	lsl.w	r7, r7, lr
 80008e4:	ea47 070b 	orr.w	r7, r7, fp
 80008e8:	6087      	str	r7, [r0, #8]
 80008ea:	6847      	ldr	r7, [r0, #4]
 80008ec:	ea27 0c0c 	bic.w	ip, r7, ip
 80008f0:	f3c5 1700 	ubfx	r7, r5, #4, #1
 80008f4:	409f      	lsls	r7, r3
 80008f6:	ea47 070c 	orr.w	r7, r7, ip
 80008fa:	6047      	str	r7, [r0, #4]
 80008fc:	68c7      	ldr	r7, [r0, #12]
 80008fe:	f1ba 0f02 	cmp.w	sl, #2
 8000902:	ea07 0c06 	and.w	ip, r7, r6
 8000906:	688f      	ldr	r7, [r1, #8]
 8000908:	fa07 f70e 	lsl.w	r7, r7, lr
 800090c:	ea47 070c 	orr.w	r7, r7, ip
 8000910:	60c7      	str	r7, [r0, #12]
 8000912:	d116      	bne.n	8000942 <HAL_GPIO_Init+0xb2>
 8000914:	f04f 0c0f 	mov.w	ip, #15
 8000918:	ea4f 0ad3 	mov.w	sl, r3, lsr #3
 800091c:	eb00 0a8a 	add.w	sl, r0, sl, lsl #2
 8000920:	f003 0b07 	and.w	fp, r3, #7
 8000924:	f8da 7020 	ldr.w	r7, [sl, #32]
 8000928:	ea4f 0b8b 	mov.w	fp, fp, lsl #2
 800092c:	fa0c fc0b 	lsl.w	ip, ip, fp
 8000930:	ea27 0c0c 	bic.w	ip, r7, ip
 8000934:	690f      	ldr	r7, [r1, #16]
 8000936:	fa07 f70b 	lsl.w	r7, r7, fp
 800093a:	ea47 070c 	orr.w	r7, r7, ip
 800093e:	f8ca 7020 	str.w	r7, [sl, #32]
 8000942:	6807      	ldr	r7, [r0, #0]
 8000944:	403e      	ands	r6, r7
 8000946:	f005 0703 	and.w	r7, r5, #3
 800094a:	fa07 fe0e 	lsl.w	lr, r7, lr
 800094e:	ea4e 0606 	orr.w	r6, lr, r6
 8000952:	6006      	str	r6, [r0, #0]
 8000954:	00ee      	lsls	r6, r5, #3
 8000956:	d54e      	bpl.n	80009f6 <HAL_GPIO_Init+0x166>
 8000958:	f04f 0c0f 	mov.w	ip, #15
 800095c:	f023 0703 	bic.w	r7, r3, #3
 8000960:	f107 4780 	add.w	r7, r7, #1073741824	; 0x40000000
 8000964:	f507 373d 	add.w	r7, r7, #193536	; 0x2f400
 8000968:	f003 0e03 	and.w	lr, r3, #3
 800096c:	6e3e      	ldr	r6, [r7, #96]	; 0x60
 800096e:	ea4f 0ece 	mov.w	lr, lr, lsl #3
 8000972:	fa0c fc0e 	lsl.w	ip, ip, lr
 8000976:	ea26 0c0c 	bic.w	ip, r6, ip
 800097a:	4e27      	ldr	r6, [pc, #156]	; (8000a18 <HAL_GPIO_Init+0x188>)
 800097c:	42b0      	cmp	r0, r6
 800097e:	d03c      	beq.n	80009fa <HAL_GPIO_Init+0x16a>
 8000980:	f506 6680 	add.w	r6, r6, #1024	; 0x400
 8000984:	42b0      	cmp	r0, r6
 8000986:	d03a      	beq.n	80009fe <HAL_GPIO_Init+0x16e>
 8000988:	f506 6680 	add.w	r6, r6, #1024	; 0x400
 800098c:	42b0      	cmp	r0, r6
 800098e:	d038      	beq.n	8000a02 <HAL_GPIO_Init+0x172>
 8000990:	f506 6680 	add.w	r6, r6, #1024	; 0x400
 8000994:	42b0      	cmp	r0, r6
 8000996:	d036      	beq.n	8000a06 <HAL_GPIO_Init+0x176>
 8000998:	f506 6680 	add.w	r6, r6, #1024	; 0x400
 800099c:	42b0      	cmp	r0, r6
 800099e:	d034      	beq.n	8000a0a <HAL_GPIO_Init+0x17a>
 80009a0:	4540      	cmp	r0, r8
 80009a2:	d034      	beq.n	8000a0e <HAL_GPIO_Init+0x17e>
 80009a4:	4548      	cmp	r0, r9
 80009a6:	bf0c      	ite	eq
 80009a8:	2606      	moveq	r6, #6
 80009aa:	2607      	movne	r6, #7
 80009ac:	fa06 f60e 	lsl.w	r6, r6, lr
 80009b0:	ea46 060c 	orr.w	r6, r6, ip
 80009b4:	663e      	str	r6, [r7, #96]	; 0x60
 80009b6:	43d7      	mvns	r7, r2
 80009b8:	f8d4 6080 	ldr.w	r6, [r4, #128]	; 0x80
 80009bc:	f415 3f80 	tst.w	r5, #65536	; 0x10000
 80009c0:	bf0c      	ite	eq
 80009c2:	403e      	andeq	r6, r7
 80009c4:	4316      	orrne	r6, r2
 80009c6:	f8c4 6080 	str.w	r6, [r4, #128]	; 0x80
 80009ca:	f8d4 6084 	ldr.w	r6, [r4, #132]	; 0x84
 80009ce:	f415 3f00 	tst.w	r5, #131072	; 0x20000
 80009d2:	bf0c      	ite	eq
 80009d4:	403e      	andeq	r6, r7
 80009d6:	4316      	orrne	r6, r2
 80009d8:	f8c4 6084 	str.w	r6, [r4, #132]	; 0x84
 80009dc:	6826      	ldr	r6, [r4, #0]
 80009de:	f415 1f80 	tst.w	r5, #1048576	; 0x100000
 80009e2:	bf0c      	ite	eq
 80009e4:	403e      	andeq	r6, r7
 80009e6:	4316      	orrne	r6, r2
 80009e8:	6026      	str	r6, [r4, #0]
 80009ea:	6866      	ldr	r6, [r4, #4]
 80009ec:	02ad      	lsls	r5, r5, #10
 80009ee:	bf54      	ite	pl
 80009f0:	403e      	andpl	r6, r7
 80009f2:	4316      	orrmi	r6, r2
 80009f4:	6066      	str	r6, [r4, #4]
 80009f6:	3301      	adds	r3, #1
 80009f8:	e752      	b.n	80008a0 <HAL_GPIO_Init+0x10>
 80009fa:	2600      	movs	r6, #0
 80009fc:	e7d6      	b.n	80009ac <HAL_GPIO_Init+0x11c>
 80009fe:	2601      	movs	r6, #1
 8000a00:	e7d4      	b.n	80009ac <HAL_GPIO_Init+0x11c>
 8000a02:	2602      	movs	r6, #2
 8000a04:	e7d2      	b.n	80009ac <HAL_GPIO_Init+0x11c>
 8000a06:	2603      	movs	r6, #3
 8000a08:	e7d0      	b.n	80009ac <HAL_GPIO_Init+0x11c>
 8000a0a:	2604      	movs	r6, #4
 8000a0c:	e7ce      	b.n	80009ac <HAL_GPIO_Init+0x11c>
 8000a0e:	2605      	movs	r6, #5
 8000a10:	e7cc      	b.n	80009ac <HAL_GPIO_Init+0x11c>
 8000a12:	bf00      	nop
 8000a14:	4002f400 	.word	0x4002f400
 8000a18:	42020000 	.word	0x42020000
 8000a1c:	42021400 	.word	0x42021400
 8000a20:	42021800 	.word	0x42021800

08000a24 <HAL_I2C_Init>:
 8000a24:	b510      	push	{r4, lr}
 8000a26:	4604      	mov	r4, r0
 8000a28:	2800      	cmp	r0, #0
 8000a2a:	d04a      	beq.n	8000ac2 <HAL_I2C_Init+0x9e>
 8000a2c:	f890 3041 	ldrb.w	r3, [r0, #65]	; 0x41
 8000a30:	f003 02ff 	and.w	r2, r3, #255	; 0xff
 8000a34:	b91b      	cbnz	r3, 8000a3e <HAL_I2C_Init+0x1a>
 8000a36:	f880 2040 	strb.w	r2, [r0, #64]	; 0x40
 8000a3a:	f7ff fcfd 	bl	8000438 <HAL_I2C_MspInit>
 8000a3e:	2324      	movs	r3, #36	; 0x24
 8000a40:	f884 3041 	strb.w	r3, [r4, #65]	; 0x41
 8000a44:	6823      	ldr	r3, [r4, #0]
 8000a46:	681a      	ldr	r2, [r3, #0]
 8000a48:	f022 0201 	bic.w	r2, r2, #1
 8000a4c:	601a      	str	r2, [r3, #0]
 8000a4e:	6862      	ldr	r2, [r4, #4]
 8000a50:	f022 6270 	bic.w	r2, r2, #251658240	; 0xf000000
 8000a54:	611a      	str	r2, [r3, #16]
 8000a56:	689a      	ldr	r2, [r3, #8]
 8000a58:	f422 4200 	bic.w	r2, r2, #32768	; 0x8000
 8000a5c:	609a      	str	r2, [r3, #8]
 8000a5e:	e9d4 2102 	ldrd	r2, r1, [r4, #8]
 8000a62:	2901      	cmp	r1, #1
 8000a64:	d124      	bne.n	8000ab0 <HAL_I2C_Init+0x8c>
 8000a66:	f442 4200 	orr.w	r2, r2, #32768	; 0x8000
 8000a6a:	609a      	str	r2, [r3, #8]
 8000a6c:	685a      	ldr	r2, [r3, #4]
 8000a6e:	2000      	movs	r0, #0
 8000a70:	f042 7200 	orr.w	r2, r2, #33554432	; 0x2000000
 8000a74:	f442 4200 	orr.w	r2, r2, #32768	; 0x8000
 8000a78:	605a      	str	r2, [r3, #4]
 8000a7a:	68da      	ldr	r2, [r3, #12]
 8000a7c:	f422 4200 	bic.w	r2, r2, #32768	; 0x8000
 8000a80:	60da      	str	r2, [r3, #12]
 8000a82:	e9d4 2104 	ldrd	r2, r1, [r4, #16]
 8000a86:	430a      	orrs	r2, r1
 8000a88:	69a1      	ldr	r1, [r4, #24]
 8000a8a:	ea42 2201 	orr.w	r2, r2, r1, lsl #8
 8000a8e:	60da      	str	r2, [r3, #12]
 8000a90:	e9d4 2107 	ldrd	r2, r1, [r4, #28]
 8000a94:	430a      	orrs	r2, r1
 8000a96:	601a      	str	r2, [r3, #0]
 8000a98:	681a      	ldr	r2, [r3, #0]
 8000a9a:	f042 0201 	orr.w	r2, r2, #1
 8000a9e:	601a      	str	r2, [r3, #0]
 8000aa0:	2320      	movs	r3, #32
 8000aa2:	6460      	str	r0, [r4, #68]	; 0x44
 8000aa4:	f884 3041 	strb.w	r3, [r4, #65]	; 0x41
 8000aa8:	6320      	str	r0, [r4, #48]	; 0x30
 8000aaa:	f884 0042 	strb.w	r0, [r4, #66]	; 0x42
 8000aae:	bd10      	pop	{r4, pc}
 8000ab0:	f442 4204 	orr.w	r2, r2, #33792	; 0x8400
 8000ab4:	2902      	cmp	r1, #2
 8000ab6:	609a      	str	r2, [r3, #8]
 8000ab8:	bf04      	itt	eq
 8000aba:	f44f 6200 	moveq.w	r2, #2048	; 0x800
 8000abe:	605a      	streq	r2, [r3, #4]
 8000ac0:	e7d4      	b.n	8000a6c <HAL_I2C_Init+0x48>
 8000ac2:	2001      	movs	r0, #1
 8000ac4:	e7f3      	b.n	8000aae <HAL_I2C_Init+0x8a>

08000ac6 <HAL_I2CEx_ConfigAnalogFilter>:
 8000ac6:	b510      	push	{r4, lr}
 8000ac8:	f890 3041 	ldrb.w	r3, [r0, #65]	; 0x41
 8000acc:	2b20      	cmp	r3, #32
 8000ace:	b2dc      	uxtb	r4, r3
 8000ad0:	d11d      	bne.n	8000b0e <HAL_I2CEx_ConfigAnalogFilter+0x48>
 8000ad2:	f890 3040 	ldrb.w	r3, [r0, #64]	; 0x40
 8000ad6:	2b01      	cmp	r3, #1
 8000ad8:	d019      	beq.n	8000b0e <HAL_I2CEx_ConfigAnalogFilter+0x48>
 8000ada:	2324      	movs	r3, #36	; 0x24
 8000adc:	f880 3041 	strb.w	r3, [r0, #65]	; 0x41
 8000ae0:	6803      	ldr	r3, [r0, #0]
 8000ae2:	681a      	ldr	r2, [r3, #0]
 8000ae4:	f022 0201 	bic.w	r2, r2, #1
 8000ae8:	601a      	str	r2, [r3, #0]
 8000aea:	681a      	ldr	r2, [r3, #0]
 8000aec:	f422 5280 	bic.w	r2, r2, #4096	; 0x1000
 8000af0:	601a      	str	r2, [r3, #0]
 8000af2:	681a      	ldr	r2, [r3, #0]
 8000af4:	4311      	orrs	r1, r2
 8000af6:	6019      	str	r1, [r3, #0]
 8000af8:	681a      	ldr	r2, [r3, #0]
 8000afa:	f042 0201 	orr.w	r2, r2, #1
 8000afe:	601a      	str	r2, [r3, #0]
 8000b00:	2300      	movs	r3, #0
 8000b02:	f880 4041 	strb.w	r4, [r0, #65]	; 0x41
 8000b06:	f880 3040 	strb.w	r3, [r0, #64]	; 0x40
 8000b0a:	4618      	mov	r0, r3
 8000b0c:	bd10      	pop	{r4, pc}
 8000b0e:	2002      	movs	r0, #2
 8000b10:	e7fc      	b.n	8000b0c <HAL_I2CEx_ConfigAnalogFilter+0x46>

08000b12 <HAL_I2CEx_ConfigDigitalFilter>:
 8000b12:	b510      	push	{r4, lr}
 8000b14:	f890 3041 	ldrb.w	r3, [r0, #65]	; 0x41
 8000b18:	2b20      	cmp	r3, #32
 8000b1a:	b2dc      	uxtb	r4, r3
 8000b1c:	d11c      	bne.n	8000b58 <HAL_I2CEx_ConfigDigitalFilter+0x46>
 8000b1e:	f890 3040 	ldrb.w	r3, [r0, #64]	; 0x40
 8000b22:	2b01      	cmp	r3, #1
 8000b24:	d018      	beq.n	8000b58 <HAL_I2CEx_ConfigDigitalFilter+0x46>
 8000b26:	2324      	movs	r3, #36	; 0x24
 8000b28:	f880 3041 	strb.w	r3, [r0, #65]	; 0x41
 8000b2c:	6803      	ldr	r3, [r0, #0]
 8000b2e:	681a      	ldr	r2, [r3, #0]
 8000b30:	f022 0201 	bic.w	r2, r2, #1
 8000b34:	601a      	str	r2, [r3, #0]
 8000b36:	681a      	ldr	r2, [r3, #0]
 8000b38:	f422 6270 	bic.w	r2, r2, #3840	; 0xf00
 8000b3c:	ea42 2101 	orr.w	r1, r2, r1, lsl #8
 8000b40:	6019      	str	r1, [r3, #0]
 8000b42:	681a      	ldr	r2, [r3, #0]
 8000b44:	f042 0201 	orr.w	r2, r2, #1
 8000b48:	601a      	str	r2, [r3, #0]
 8000b4a:	2300      	movs	r3, #0
 8000b4c:	f880 4041 	strb.w	r4, [r0, #65]	; 0x41
 8000b50:	f880 3040 	strb.w	r3, [r0, #64]	; 0x40
 8000b54:	4618      	mov	r0, r3
 8000b56:	bd10      	pop	{r4, pc}
 8000b58:	2002      	movs	r0, #2
 8000b5a:	e7fc      	b.n	8000b56 <HAL_I2CEx_ConfigDigitalFilter+0x44>

08000b5c <HAL_ICACHE_Enable>:
 8000b5c:	4a03      	ldr	r2, [pc, #12]	; (8000b6c <HAL_ICACHE_Enable+0x10>)
 8000b5e:	2000      	movs	r0, #0
 8000b60:	6813      	ldr	r3, [r2, #0]
 8000b62:	f043 0301 	orr.w	r3, r3, #1
 8000b66:	6013      	str	r3, [r2, #0]
 8000b68:	4770      	bx	lr
 8000b6a:	bf00      	nop
 8000b6c:	40030400 	.word	0x40030400

08000b70 <HAL_PCD_Init>:
 8000b70:	b5f0      	push	{r4, r5, r6, r7, lr}
 8000b72:	4604      	mov	r4, r0
 8000b74:	b087      	sub	sp, #28
 8000b76:	2800      	cmp	r0, #0
 8000b78:	d055      	beq.n	8000c26 <HAL_PCD_Init+0xb6>
 8000b7a:	f890 32a9 	ldrb.w	r3, [r0, #681]	; 0x2a9
 8000b7e:	f003 02ff 	and.w	r2, r3, #255	; 0xff
 8000b82:	b91b      	cbnz	r3, 8000b8c <HAL_PCD_Init+0x1c>
 8000b84:	f880 22a8 	strb.w	r2, [r0, #680]	; 0x2a8
 8000b88:	f003 fc1c 	bl	80043c4 <HAL_PCD_MspInit>
 8000b8c:	2303      	movs	r3, #3
 8000b8e:	6820      	ldr	r0, [r4, #0]
 8000b90:	f884 32a9 	strb.w	r3, [r4, #681]	; 0x2a9
 8000b94:	f001 ff49 	bl	8002a2a <USB_DisableGlobalInt>
 8000b98:	2300      	movs	r3, #0
 8000b9a:	2628      	movs	r6, #40	; 0x28
 8000b9c:	2701      	movs	r7, #1
 8000b9e:	4618      	mov	r0, r3
 8000ba0:	6865      	ldr	r5, [r4, #4]
 8000ba2:	b2d9      	uxtb	r1, r3
 8000ba4:	428d      	cmp	r5, r1
 8000ba6:	f103 0201 	add.w	r2, r3, #1
 8000baa:	d821      	bhi.n	8000bf0 <HAL_PCD_Init+0x80>
 8000bac:	2300      	movs	r3, #0
 8000bae:	2628      	movs	r6, #40	; 0x28
 8000bb0:	4619      	mov	r1, r3
 8000bb2:	b2d8      	uxtb	r0, r3
 8000bb4:	4285      	cmp	r5, r0
 8000bb6:	f103 0301 	add.w	r3, r3, #1
 8000bba:	d827      	bhi.n	8000c0c <HAL_PCD_Init+0x9c>
 8000bbc:	466d      	mov	r5, sp
 8000bbe:	f104 0610 	add.w	r6, r4, #16
 8000bc2:	ce0f      	ldmia	r6!, {r0, r1, r2, r3}
 8000bc4:	c50f      	stmia	r5!, {r0, r1, r2, r3}
 8000bc6:	6833      	ldr	r3, [r6, #0]
 8000bc8:	602b      	str	r3, [r5, #0]
 8000bca:	1d23      	adds	r3, r4, #4
 8000bcc:	cb0e      	ldmia	r3, {r1, r2, r3}
 8000bce:	6820      	ldr	r0, [r4, #0]
 8000bd0:	f001 ff35 	bl	8002a3e <USB_DevInit>
 8000bd4:	2500      	movs	r5, #0
 8000bd6:	2301      	movs	r3, #1
 8000bd8:	f884 5024 	strb.w	r5, [r4, #36]	; 0x24
 8000bdc:	f884 32a9 	strb.w	r3, [r4, #681]	; 0x2a9
 8000be0:	69e3      	ldr	r3, [r4, #28]
 8000be2:	2b01      	cmp	r3, #1
 8000be4:	d102      	bne.n	8000bec <HAL_PCD_Init+0x7c>
 8000be6:	4620      	mov	r0, r4
 8000be8:	f000 fe3a 	bl	8001860 <HAL_PCDEx_ActivateLPM>
 8000bec:	4628      	mov	r0, r5
 8000bee:	e01b      	b.n	8000c28 <HAL_PCD_Init+0xb8>
 8000bf0:	fb06 4301 	mla	r3, r6, r1, r4
 8000bf4:	e9c3 000e 	strd	r0, r0, [r3, #56]	; 0x38
 8000bf8:	f883 7029 	strb.w	r7, [r3, #41]	; 0x29
 8000bfc:	f883 1028 	strb.w	r1, [r3, #40]	; 0x28
 8000c00:	86d9      	strh	r1, [r3, #54]	; 0x36
 8000c02:	f883 002b 	strb.w	r0, [r3, #43]	; 0x2b
 8000c06:	6418      	str	r0, [r3, #64]	; 0x40
 8000c08:	4613      	mov	r3, r2
 8000c0a:	e7ca      	b.n	8000ba2 <HAL_PCD_Init+0x32>
 8000c0c:	fb06 4200 	mla	r2, r6, r0, r4
 8000c10:	e9c2 115e 	strd	r1, r1, [r2, #376]	; 0x178
 8000c14:	f882 1169 	strb.w	r1, [r2, #361]	; 0x169
 8000c18:	f882 0168 	strb.w	r0, [r2, #360]	; 0x168
 8000c1c:	f882 116b 	strb.w	r1, [r2, #363]	; 0x16b
 8000c20:	f8c2 1180 	str.w	r1, [r2, #384]	; 0x180
 8000c24:	e7c5      	b.n	8000bb2 <HAL_PCD_Init+0x42>
 8000c26:	2001      	movs	r0, #1
 8000c28:	b007      	add	sp, #28
 8000c2a:	bdf0      	pop	{r4, r5, r6, r7, pc}

08000c2c <HAL_PCD_Start>:
 8000c2c:	b510      	push	{r4, lr}
 8000c2e:	f890 32a8 	ldrb.w	r3, [r0, #680]	; 0x2a8
 8000c32:	4604      	mov	r4, r0
 8000c34:	2b01      	cmp	r3, #1
 8000c36:	d00c      	beq.n	8000c52 <HAL_PCD_Start+0x26>
 8000c38:	2301      	movs	r3, #1
 8000c3a:	f880 32a8 	strb.w	r3, [r0, #680]	; 0x2a8
 8000c3e:	6800      	ldr	r0, [r0, #0]
 8000c40:	f001 feea 	bl	8002a18 <USB_EnableGlobalInt>
 8000c44:	6820      	ldr	r0, [r4, #0]
 8000c46:	f002 f9bb 	bl	8002fc0 <USB_DevConnect>
 8000c4a:	2000      	movs	r0, #0
 8000c4c:	f884 02a8 	strb.w	r0, [r4, #680]	; 0x2a8
 8000c50:	bd10      	pop	{r4, pc}
 8000c52:	2002      	movs	r0, #2
 8000c54:	e7fc      	b.n	8000c50 <HAL_PCD_Start+0x24>

08000c56 <HAL_PCD_SetAddress>:
 8000c56:	b510      	push	{r4, lr}
 8000c58:	f890 22a8 	ldrb.w	r2, [r0, #680]	; 0x2a8
 8000c5c:	4604      	mov	r4, r0
 8000c5e:	2a01      	cmp	r2, #1
 8000c60:	d00b      	beq.n	8000c7a <HAL_PCD_SetAddress+0x24>
 8000c62:	2201      	movs	r2, #1
 8000c64:	f880 1024 	strb.w	r1, [r0, #36]	; 0x24
 8000c68:	f880 22a8 	strb.w	r2, [r0, #680]	; 0x2a8
 8000c6c:	6800      	ldr	r0, [r0, #0]
 8000c6e:	f002 f9a1 	bl	8002fb4 <USB_SetDevAddress>
 8000c72:	2000      	movs	r0, #0
 8000c74:	f884 02a8 	strb.w	r0, [r4, #680]	; 0x2a8
 8000c78:	bd10      	pop	{r4, pc}
 8000c7a:	2002      	movs	r0, #2
 8000c7c:	e7fc      	b.n	8000c78 <HAL_PCD_SetAddress+0x22>
	...

08000c80 <HAL_PCD_IRQHandler>:
 8000c80:	e92d 4ff8 	stmdb	sp!, {r3, r4, r5, r6, r7, r8, r9, sl, fp, lr}
 8000c84:	4604      	mov	r4, r0
 8000c86:	6800      	ldr	r0, [r0, #0]
 8000c88:	f002 f9a5 	bl	8002fd6 <USB_ReadInterrupts>
 8000c8c:	0401      	lsls	r1, r0, #16
 8000c8e:	d509      	bpl.n	8000ca4 <HAL_PCD_IRQHandler+0x24>
 8000c90:	f8df a9a0 	ldr.w	sl, [pc, #2464]	; 8001634 <HAL_PCD_IRQHandler+0x9b4>
 8000c94:	f8df 99a0 	ldr.w	r9, [pc, #2464]	; 8001638 <HAL_PCD_IRQHandler+0x9b8>
 8000c98:	6820      	ldr	r0, [r4, #0]
 8000c9a:	f8b0 3044 	ldrh.w	r3, [r0, #68]	; 0x44
 8000c9e:	041b      	lsls	r3, r3, #16
 8000ca0:	f100 80cc 	bmi.w	8000e3c <HAL_PCD_IRQHandler+0x1bc>
 8000ca4:	6820      	ldr	r0, [r4, #0]
 8000ca6:	f002 f996 	bl	8002fd6 <USB_ReadInterrupts>
 8000caa:	0542      	lsls	r2, r0, #21
 8000cac:	d50f      	bpl.n	8000cce <HAL_PCD_IRQHandler+0x4e>
 8000cae:	6822      	ldr	r2, [r4, #0]
 8000cb0:	4620      	mov	r0, r4
 8000cb2:	f8b2 3044 	ldrh.w	r3, [r2, #68]	; 0x44
 8000cb6:	f423 6380 	bic.w	r3, r3, #1024	; 0x400
 8000cba:	041b      	lsls	r3, r3, #16
 8000cbc:	0c1b      	lsrs	r3, r3, #16
 8000cbe:	f8a2 3044 	strh.w	r3, [r2, #68]	; 0x44
 8000cc2:	f003 fbf6 	bl	80044b2 <HAL_PCD_ResetCallback>
 8000cc6:	2100      	movs	r1, #0
 8000cc8:	4620      	mov	r0, r4
 8000cca:	f7ff ffc4 	bl	8000c56 <HAL_PCD_SetAddress>
 8000cce:	6820      	ldr	r0, [r4, #0]
 8000cd0:	f002 f981 	bl	8002fd6 <USB_ReadInterrupts>
 8000cd4:	0447      	lsls	r7, r0, #17
 8000cd6:	d508      	bpl.n	8000cea <HAL_PCD_IRQHandler+0x6a>
 8000cd8:	6822      	ldr	r2, [r4, #0]
 8000cda:	f8b2 3044 	ldrh.w	r3, [r2, #68]	; 0x44
 8000cde:	f423 4380 	bic.w	r3, r3, #16384	; 0x4000
 8000ce2:	041b      	lsls	r3, r3, #16
 8000ce4:	0c1b      	lsrs	r3, r3, #16
 8000ce6:	f8a2 3044 	strh.w	r3, [r2, #68]	; 0x44
 8000cea:	6820      	ldr	r0, [r4, #0]
 8000cec:	f002 f973 	bl	8002fd6 <USB_ReadInterrupts>
 8000cf0:	0486      	lsls	r6, r0, #18
 8000cf2:	d508      	bpl.n	8000d06 <HAL_PCD_IRQHandler+0x86>
 8000cf4:	6822      	ldr	r2, [r4, #0]
 8000cf6:	f8b2 3044 	ldrh.w	r3, [r2, #68]	; 0x44
 8000cfa:	f423 5300 	bic.w	r3, r3, #8192	; 0x2000
 8000cfe:	041b      	lsls	r3, r3, #16
 8000d00:	0c1b      	lsrs	r3, r3, #16
 8000d02:	f8a2 3044 	strh.w	r3, [r2, #68]	; 0x44
 8000d06:	6820      	ldr	r0, [r4, #0]
 8000d08:	f002 f965 	bl	8002fd6 <USB_ReadInterrupts>
 8000d0c:	04c5      	lsls	r5, r0, #19
 8000d0e:	d526      	bpl.n	8000d5e <HAL_PCD_IRQHandler+0xde>
 8000d10:	6822      	ldr	r2, [r4, #0]
 8000d12:	f8b2 3040 	ldrh.w	r3, [r2, #64]	; 0x40
 8000d16:	f023 0304 	bic.w	r3, r3, #4
 8000d1a:	041b      	lsls	r3, r3, #16
 8000d1c:	0c1b      	lsrs	r3, r3, #16
 8000d1e:	f8a2 3040 	strh.w	r3, [r2, #64]	; 0x40
 8000d22:	f8b2 3040 	ldrh.w	r3, [r2, #64]	; 0x40
 8000d26:	f023 0308 	bic.w	r3, r3, #8
 8000d2a:	041b      	lsls	r3, r3, #16
 8000d2c:	0c1b      	lsrs	r3, r3, #16
 8000d2e:	f8a2 3040 	strh.w	r3, [r2, #64]	; 0x40
 8000d32:	f894 32e0 	ldrb.w	r3, [r4, #736]	; 0x2e0
 8000d36:	2b01      	cmp	r3, #1
 8000d38:	d105      	bne.n	8000d46 <HAL_PCD_IRQHandler+0xc6>
 8000d3a:	2100      	movs	r1, #0
 8000d3c:	4620      	mov	r0, r4
 8000d3e:	f884 12e0 	strb.w	r1, [r4, #736]	; 0x2e0
 8000d42:	f003 fcbb 	bl	80046bc <HAL_PCDEx_LPM_Callback>
 8000d46:	4620      	mov	r0, r4
 8000d48:	f003 fbd6 	bl	80044f8 <HAL_PCD_ResumeCallback>
 8000d4c:	6822      	ldr	r2, [r4, #0]
 8000d4e:	f8b2 3044 	ldrh.w	r3, [r2, #68]	; 0x44
 8000d52:	f423 5380 	bic.w	r3, r3, #4096	; 0x1000
 8000d56:	041b      	lsls	r3, r3, #16
 8000d58:	0c1b      	lsrs	r3, r3, #16
 8000d5a:	f8a2 3044 	strh.w	r3, [r2, #68]	; 0x44
 8000d5e:	6820      	ldr	r0, [r4, #0]
 8000d60:	f002 f939 	bl	8002fd6 <USB_ReadInterrupts>
 8000d64:	0500      	lsls	r0, r0, #20
 8000d66:	d519      	bpl.n	8000d9c <HAL_PCD_IRQHandler+0x11c>
 8000d68:	6822      	ldr	r2, [r4, #0]
 8000d6a:	4620      	mov	r0, r4
 8000d6c:	f8b2 3040 	ldrh.w	r3, [r2, #64]	; 0x40
 8000d70:	b29b      	uxth	r3, r3
 8000d72:	f043 0308 	orr.w	r3, r3, #8
 8000d76:	f8a2 3040 	strh.w	r3, [r2, #64]	; 0x40
 8000d7a:	f8b2 3044 	ldrh.w	r3, [r2, #68]	; 0x44
 8000d7e:	f423 6300 	bic.w	r3, r3, #2048	; 0x800
 8000d82:	041b      	lsls	r3, r3, #16
 8000d84:	0c1b      	lsrs	r3, r3, #16
 8000d86:	f8a2 3044 	strh.w	r3, [r2, #68]	; 0x44
 8000d8a:	f8b2 3040 	ldrh.w	r3, [r2, #64]	; 0x40
 8000d8e:	b29b      	uxth	r3, r3
 8000d90:	f043 0304 	orr.w	r3, r3, #4
 8000d94:	f8a2 3040 	strh.w	r3, [r2, #64]	; 0x40
 8000d98:	f003 fb9e 	bl	80044d8 <HAL_PCD_SuspendCallback>
 8000d9c:	6820      	ldr	r0, [r4, #0]
 8000d9e:	f002 f91a 	bl	8002fd6 <USB_ReadInterrupts>
 8000da2:	0601      	lsls	r1, r0, #24
 8000da4:	d529      	bpl.n	8000dfa <HAL_PCD_IRQHandler+0x17a>
 8000da6:	6823      	ldr	r3, [r4, #0]
 8000da8:	f8b3 2044 	ldrh.w	r2, [r3, #68]	; 0x44
 8000dac:	f022 0280 	bic.w	r2, r2, #128	; 0x80
 8000db0:	0412      	lsls	r2, r2, #16
 8000db2:	0c12      	lsrs	r2, r2, #16
 8000db4:	f8a3 2044 	strh.w	r2, [r3, #68]	; 0x44
 8000db8:	f894 22e0 	ldrb.w	r2, [r4, #736]	; 0x2e0
 8000dbc:	2a00      	cmp	r2, #0
 8000dbe:	f040 8434 	bne.w	800162a <HAL_PCD_IRQHandler+0x9aa>
 8000dc2:	2101      	movs	r1, #1
 8000dc4:	f8b3 2040 	ldrh.w	r2, [r3, #64]	; 0x40
 8000dc8:	4620      	mov	r0, r4
 8000dca:	b292      	uxth	r2, r2
 8000dcc:	f042 0204 	orr.w	r2, r2, #4
 8000dd0:	f8a3 2040 	strh.w	r2, [r3, #64]	; 0x40
 8000dd4:	f8b3 2040 	ldrh.w	r2, [r3, #64]	; 0x40
 8000dd8:	b292      	uxth	r2, r2
 8000dda:	f042 0208 	orr.w	r2, r2, #8
 8000dde:	f8a3 2040 	strh.w	r2, [r3, #64]	; 0x40
 8000de2:	f884 12e0 	strb.w	r1, [r4, #736]	; 0x2e0
 8000de6:	f8b3 3054 	ldrh.w	r3, [r3, #84]	; 0x54
 8000dea:	f3c3 038d 	ubfx	r3, r3, #2, #14
 8000dee:	f003 033c 	and.w	r3, r3, #60	; 0x3c
 8000df2:	f8c4 32e4 	str.w	r3, [r4, #740]	; 0x2e4
 8000df6:	f003 fc61 	bl	80046bc <HAL_PCDEx_LPM_Callback>
 8000dfa:	6820      	ldr	r0, [r4, #0]
 8000dfc:	f002 f8eb 	bl	8002fd6 <USB_ReadInterrupts>
 8000e00:	0582      	lsls	r2, r0, #22
 8000e02:	d50b      	bpl.n	8000e1c <HAL_PCD_IRQHandler+0x19c>
 8000e04:	6822      	ldr	r2, [r4, #0]
 8000e06:	4620      	mov	r0, r4
 8000e08:	f8b2 3044 	ldrh.w	r3, [r2, #68]	; 0x44
 8000e0c:	f423 7300 	bic.w	r3, r3, #512	; 0x200
 8000e10:	041b      	lsls	r3, r3, #16
 8000e12:	0c1b      	lsrs	r3, r3, #16
 8000e14:	f8a2 3044 	strh.w	r3, [r2, #68]	; 0x44
 8000e18:	f003 fb47 	bl	80044aa <HAL_PCD_SOFCallback>
 8000e1c:	6820      	ldr	r0, [r4, #0]
 8000e1e:	f002 f8da 	bl	8002fd6 <USB_ReadInterrupts>
 8000e22:	05c3      	lsls	r3, r0, #23
 8000e24:	d508      	bpl.n	8000e38 <HAL_PCD_IRQHandler+0x1b8>
 8000e26:	6822      	ldr	r2, [r4, #0]
 8000e28:	f8b2 3044 	ldrh.w	r3, [r2, #68]	; 0x44
 8000e2c:	f423 7380 	bic.w	r3, r3, #256	; 0x100
 8000e30:	041b      	lsls	r3, r3, #16
 8000e32:	0c1b      	lsrs	r3, r3, #16
 8000e34:	f8a2 3044 	strh.w	r3, [r2, #68]	; 0x44
 8000e38:	e8bd 8ff8 	ldmia.w	sp!, {r3, r4, r5, r6, r7, r8, r9, sl, fp, pc}
 8000e3c:	f8b0 7044 	ldrh.w	r7, [r0, #68]	; 0x44
 8000e40:	b2b9      	uxth	r1, r7
 8000e42:	f017 070f 	ands.w	r7, r7, #15
 8000e46:	f040 80ba 	bne.w	8000fbe <HAL_PCD_IRQHandler+0x33e>
 8000e4a:	f011 0110 	ands.w	r1, r1, #16
 8000e4e:	d12c      	bne.n	8000eaa <HAL_PCD_IRQHandler+0x22a>
 8000e50:	8803      	ldrh	r3, [r0, #0]
 8000e52:	b29b      	uxth	r3, r3
 8000e54:	ea03 030a 	and.w	r3, r3, sl
 8000e58:	f443 4300 	orr.w	r3, r3, #32768	; 0x8000
 8000e5c:	8003      	strh	r3, [r0, #0]
 8000e5e:	f8b0 3050 	ldrh.w	r3, [r0, #80]	; 0x50
 8000e62:	f894 2028 	ldrb.w	r2, [r4, #40]	; 0x28
 8000e66:	f200 4002 	addw	r0, r0, #1026	; 0x402
 8000e6a:	fa10 f383 	uxtah	r3, r0, r3
 8000e6e:	f833 3032 	ldrh.w	r3, [r3, r2, lsl #3]
 8000e72:	6be2      	ldr	r2, [r4, #60]	; 0x3c
 8000e74:	f3c3 0309 	ubfx	r3, r3, #0, #10
 8000e78:	6463      	str	r3, [r4, #68]	; 0x44
 8000e7a:	4413      	add	r3, r2
 8000e7c:	63e3      	str	r3, [r4, #60]	; 0x3c
 8000e7e:	4620      	mov	r0, r4
 8000e80:	f003 fb0b 	bl	800449a <HAL_PCD_DataInStageCallback>
 8000e84:	f894 3024 	ldrb.w	r3, [r4, #36]	; 0x24
 8000e88:	2b00      	cmp	r3, #0
 8000e8a:	f43f af05 	beq.w	8000c98 <HAL_PCD_IRQHandler+0x18>
 8000e8e:	6c22      	ldr	r2, [r4, #64]	; 0x40
 8000e90:	2a00      	cmp	r2, #0
 8000e92:	f47f af01 	bne.w	8000c98 <HAL_PCD_IRQHandler+0x18>
 8000e96:	f894 3024 	ldrb.w	r3, [r4, #36]	; 0x24
 8000e9a:	6821      	ldr	r1, [r4, #0]
 8000e9c:	f043 0380 	orr.w	r3, r3, #128	; 0x80
 8000ea0:	f8a1 304c 	strh.w	r3, [r1, #76]	; 0x4c
 8000ea4:	f884 2024 	strb.w	r2, [r4, #36]	; 0x24
 8000ea8:	e6f6      	b.n	8000c98 <HAL_PCD_IRQHandler+0x18>
 8000eaa:	8805      	ldrh	r5, [r0, #0]
 8000eac:	b2ab      	uxth	r3, r5
 8000eae:	f415 6500 	ands.w	r5, r5, #2048	; 0x800
 8000eb2:	d020      	beq.n	8000ef6 <HAL_PCD_IRQHandler+0x276>
 8000eb4:	f8b0 3050 	ldrh.w	r3, [r0, #80]	; 0x50
 8000eb8:	f894 2168 	ldrb.w	r2, [r4, #360]	; 0x168
 8000ebc:	f200 4106 	addw	r1, r0, #1030	; 0x406
 8000ec0:	fa11 f383 	uxtah	r3, r1, r3
 8000ec4:	f833 3032 	ldrh.w	r3, [r3, r2, lsl #3]
 8000ec8:	f504 712c 	add.w	r1, r4, #688	; 0x2b0
 8000ecc:	f3c3 0309 	ubfx	r3, r3, #0, #10
 8000ed0:	f8b4 216e 	ldrh.w	r2, [r4, #366]	; 0x16e
 8000ed4:	f8c4 3184 	str.w	r3, [r4, #388]	; 0x184
 8000ed8:	f002 fc2e 	bl	8003738 <USB_ReadPMA>
 8000edc:	6822      	ldr	r2, [r4, #0]
 8000ede:	4620      	mov	r0, r4
 8000ee0:	8813      	ldrh	r3, [r2, #0]
 8000ee2:	f023 0370 	bic.w	r3, r3, #112	; 0x70
 8000ee6:	051b      	lsls	r3, r3, #20
 8000ee8:	0d1b      	lsrs	r3, r3, #20
 8000eea:	f043 0380 	orr.w	r3, r3, #128	; 0x80
 8000eee:	8013      	strh	r3, [r2, #0]
 8000ef0:	f003 fac4 	bl	800447c <HAL_PCD_SetupStageCallback>
 8000ef4:	e6d0      	b.n	8000c98 <HAL_PCD_IRQHandler+0x18>
 8000ef6:	041b      	lsls	r3, r3, #16
 8000ef8:	f57f aece 	bpl.w	8000c98 <HAL_PCD_IRQHandler+0x18>
 8000efc:	8803      	ldrh	r3, [r0, #0]
 8000efe:	f200 4106 	addw	r1, r0, #1030	; 0x406
 8000f02:	f023 0370 	bic.w	r3, r3, #112	; 0x70
 8000f06:	051b      	lsls	r3, r3, #20
 8000f08:	0d1b      	lsrs	r3, r3, #20
 8000f0a:	f043 0380 	orr.w	r3, r3, #128	; 0x80
 8000f0e:	8003      	strh	r3, [r0, #0]
 8000f10:	f8b0 3050 	ldrh.w	r3, [r0, #80]	; 0x50
 8000f14:	f894 2168 	ldrb.w	r2, [r4, #360]	; 0x168
 8000f18:	fa11 f383 	uxtah	r3, r1, r3
 8000f1c:	f833 3032 	ldrh.w	r3, [r3, r2, lsl #3]
 8000f20:	f3c3 0309 	ubfx	r3, r3, #0, #10
 8000f24:	f8c4 3184 	str.w	r3, [r4, #388]	; 0x184
 8000f28:	b18b      	cbz	r3, 8000f4e <HAL_PCD_IRQHandler+0x2ce>
 8000f2a:	f8d4 117c 	ldr.w	r1, [r4, #380]	; 0x17c
 8000f2e:	b171      	cbz	r1, 8000f4e <HAL_PCD_IRQHandler+0x2ce>
 8000f30:	f8b4 216e 	ldrh.w	r2, [r4, #366]	; 0x16e
 8000f34:	f002 fc00 	bl	8003738 <USB_ReadPMA>
 8000f38:	f8d4 317c 	ldr.w	r3, [r4, #380]	; 0x17c
 8000f3c:	f8d4 2184 	ldr.w	r2, [r4, #388]	; 0x184
 8000f40:	4629      	mov	r1, r5
 8000f42:	4413      	add	r3, r2
 8000f44:	4620      	mov	r0, r4
 8000f46:	f8c4 317c 	str.w	r3, [r4, #380]	; 0x17c
 8000f4a:	f003 fa9d 	bl	8004488 <HAL_PCD_DataOutStageCallback>
 8000f4e:	6821      	ldr	r1, [r4, #0]
 8000f50:	880b      	ldrh	r3, [r1, #0]
 8000f52:	051f      	lsls	r7, r3, #20
 8000f54:	f53f aea0 	bmi.w	8000c98 <HAL_PCD_IRQHandler+0x18>
 8000f58:	f8b1 3050 	ldrh.w	r3, [r1, #80]	; 0x50
 8000f5c:	f8d4 5178 	ldr.w	r5, [r4, #376]	; 0x178
 8000f60:	b29b      	uxth	r3, r3
 8000f62:	f201 4006 	addw	r0, r1, #1030	; 0x406
 8000f66:	b9cd      	cbnz	r5, 8000f9c <HAL_PCD_IRQHandler+0x31c>
 8000f68:	5ac2      	ldrh	r2, [r0, r3]
 8000f6a:	f422 42f8 	bic.w	r2, r2, #31744	; 0x7c00
 8000f6e:	0412      	lsls	r2, r2, #16
 8000f70:	0c12      	lsrs	r2, r2, #16
 8000f72:	52c2      	strh	r2, [r0, r3]
 8000f74:	5ac2      	ldrh	r2, [r0, r3]
 8000f76:	b292      	uxth	r2, r2
 8000f78:	f442 4200 	orr.w	r2, r2, #32768	; 0x8000
 8000f7c:	52c2      	strh	r2, [r0, r3]
 8000f7e:	880b      	ldrh	r3, [r1, #0]
 8000f80:	f423 4380 	bic.w	r3, r3, #16384	; 0x4000
 8000f84:	f023 0370 	bic.w	r3, r3, #112	; 0x70
 8000f88:	041b      	lsls	r3, r3, #16
 8000f8a:	0c1b      	lsrs	r3, r3, #16
 8000f8c:	f483 5340 	eor.w	r3, r3, #12288	; 0x3000
 8000f90:	f443 4300 	orr.w	r3, r3, #32768	; 0x8000
 8000f94:	f043 0380 	orr.w	r3, r3, #128	; 0x80
 8000f98:	800b      	strh	r3, [r1, #0]
 8000f9a:	e67d      	b.n	8000c98 <HAL_PCD_IRQHandler+0x18>
 8000f9c:	2d3e      	cmp	r5, #62	; 0x3e
 8000f9e:	d806      	bhi.n	8000fae <HAL_PCD_IRQHandler+0x32e>
 8000fa0:	086a      	lsrs	r2, r5, #1
 8000fa2:	07ee      	lsls	r6, r5, #31
 8000fa4:	bf48      	it	mi
 8000fa6:	3201      	addmi	r2, #1
 8000fa8:	0292      	lsls	r2, r2, #10
 8000faa:	b292      	uxth	r2, r2
 8000fac:	e7e6      	b.n	8000f7c <HAL_PCD_IRQHandler+0x2fc>
 8000fae:	096a      	lsrs	r2, r5, #5
 8000fb0:	06ed      	lsls	r5, r5, #27
 8000fb2:	bf08      	it	eq
 8000fb4:	f102 32ff 	addeq.w	r2, r2, #4294967295
 8000fb8:	ea49 2282 	orr.w	r2, r9, r2, lsl #10
 8000fbc:	e7f5      	b.n	8000faa <HAL_PCD_IRQHandler+0x32a>
 8000fbe:	b23e      	sxth	r6, r7
 8000fc0:	f830 3026 	ldrh.w	r3, [r0, r6, lsl #2]
 8000fc4:	fa1f f883 	uxth.w	r8, r3
 8000fc8:	041b      	lsls	r3, r3, #16
 8000fca:	f140 80f6 	bpl.w	80011ba <HAL_PCD_IRQHandler+0x53a>
 8000fce:	2128      	movs	r1, #40	; 0x28
 8000fd0:	f830 3026 	ldrh.w	r3, [r0, r6, lsl #2]
 8000fd4:	fb01 4107 	mla	r1, r1, r7, r4
 8000fd8:	f023 0370 	bic.w	r3, r3, #112	; 0x70
 8000fdc:	051b      	lsls	r3, r3, #20
 8000fde:	0d1b      	lsrs	r3, r3, #20
 8000fe0:	f043 0380 	orr.w	r3, r3, #128	; 0x80
 8000fe4:	f820 3026 	strh.w	r3, [r0, r6, lsl #2]
 8000fe8:	f891 3174 	ldrb.w	r3, [r1, #372]	; 0x174
 8000fec:	b9b3      	cbnz	r3, 800101c <HAL_PCD_IRQHandler+0x39c>
 8000fee:	f8b0 3050 	ldrh.w	r3, [r0, #80]	; 0x50
 8000ff2:	f200 4506 	addw	r5, r0, #1030	; 0x406
 8000ff6:	f891 2168 	ldrb.w	r2, [r1, #360]	; 0x168
 8000ffa:	fa15 f383 	uxtah	r3, r5, r3
 8000ffe:	f833 5032 	ldrh.w	r5, [r3, r2, lsl #3]
 8001002:	f3c5 0509 	ubfx	r5, r5, #0, #10
 8001006:	2d00      	cmp	r5, #0
 8001008:	f000 80bb 	beq.w	8001182 <HAL_PCD_IRQHandler+0x502>
 800100c:	462b      	mov	r3, r5
 800100e:	f8b1 216e 	ldrh.w	r2, [r1, #366]	; 0x16e
 8001012:	f8d1 117c 	ldr.w	r1, [r1, #380]	; 0x17c
 8001016:	f002 fb8f 	bl	8003738 <USB_ReadPMA>
 800101a:	e0b2      	b.n	8001182 <HAL_PCD_IRQHandler+0x502>
 800101c:	f891 316b 	ldrb.w	r3, [r1, #363]	; 0x16b
 8001020:	f891 c168 	ldrb.w	ip, [r1, #360]	; 0x168
 8001024:	2b02      	cmp	r3, #2
 8001026:	f040 808b 	bne.w	8001140 <HAL_PCD_IRQHandler+0x4c0>
 800102a:	f418 4b80 	ands.w	fp, r8, #16384	; 0x4000
 800102e:	f8d1 2180 	ldr.w	r2, [r1, #384]	; 0x180
 8001032:	f8b0 3050 	ldrh.w	r3, [r0, #80]	; 0x50
 8001036:	ea4f 05cc 	mov.w	r5, ip, lsl #3
 800103a:	f008 0e40 	and.w	lr, r8, #64	; 0x40
 800103e:	d040      	beq.n	80010c2 <HAL_PCD_IRQHandler+0x442>
 8001040:	fa15 f583 	uxtah	r5, r5, r3
 8001044:	4405      	add	r5, r0
 8001046:	f8b5 5402 	ldrh.w	r5, [r5, #1026]	; 0x402
 800104a:	f3c5 0509 	ubfx	r5, r5, #0, #10
 800104e:	4295      	cmp	r5, r2
 8001050:	d913      	bls.n	800107a <HAL_PCD_IRQHandler+0x3fa>
 8001052:	2300      	movs	r3, #0
 8001054:	f8c1 3180 	str.w	r3, [r1, #384]	; 0x180
 8001058:	f830 302c 	ldrh.w	r3, [r0, ip, lsl #2]
 800105c:	f423 4380 	bic.w	r3, r3, #16384	; 0x4000
 8001060:	f023 0370 	bic.w	r3, r3, #112	; 0x70
 8001064:	041b      	lsls	r3, r3, #16
 8001066:	0c1b      	lsrs	r3, r3, #16
 8001068:	f483 5300 	eor.w	r3, r3, #8192	; 0x2000
 800106c:	f443 4300 	orr.w	r3, r3, #32768	; 0x8000
 8001070:	f043 0380 	orr.w	r3, r3, #128	; 0x80
 8001074:	f820 302c 	strh.w	r3, [r0, ip, lsl #2]
 8001078:	e004      	b.n	8001084 <HAL_PCD_IRQHandler+0x404>
 800107a:	1b52      	subs	r2, r2, r5
 800107c:	f8c1 2180 	str.w	r2, [r1, #384]	; 0x180
 8001080:	2a00      	cmp	r2, #0
 8001082:	d0e9      	beq.n	8001058 <HAL_PCD_IRQHandler+0x3d8>
 8001084:	f1be 0f00 	cmp.w	lr, #0
 8001088:	d012      	beq.n	80010b0 <HAL_PCD_IRQHandler+0x430>
 800108a:	2328      	movs	r3, #40	; 0x28
 800108c:	fb03 4307 	mla	r3, r3, r7, r4
 8001090:	f893 2168 	ldrb.w	r2, [r3, #360]	; 0x168
 8001094:	f830 3022 	ldrh.w	r3, [r0, r2, lsl #2]
 8001098:	f423 43e0 	bic.w	r3, r3, #28672	; 0x7000
 800109c:	f023 0370 	bic.w	r3, r3, #112	; 0x70
 80010a0:	041b      	lsls	r3, r3, #16
 80010a2:	0c1b      	lsrs	r3, r3, #16
 80010a4:	f443 4300 	orr.w	r3, r3, #32768	; 0x8000
 80010a8:	f043 03c0 	orr.w	r3, r3, #192	; 0xc0
 80010ac:	f820 3022 	strh.w	r3, [r0, r2, lsl #2]
 80010b0:	2d00      	cmp	r5, #0
 80010b2:	d066      	beq.n	8001182 <HAL_PCD_IRQHandler+0x502>
 80010b4:	2128      	movs	r1, #40	; 0x28
 80010b6:	fb01 4107 	mla	r1, r1, r7, r4
 80010ba:	462b      	mov	r3, r5
 80010bc:	f8b1 2170 	ldrh.w	r2, [r1, #368]	; 0x170
 80010c0:	e7a7      	b.n	8001012 <HAL_PCD_IRQHandler+0x392>
 80010c2:	fa15 f383 	uxtah	r3, r5, r3
 80010c6:	4403      	add	r3, r0
 80010c8:	f8b3 5406 	ldrh.w	r5, [r3, #1030]	; 0x406
 80010cc:	f3c5 0509 	ubfx	r5, r5, #0, #10
 80010d0:	4295      	cmp	r5, r2
 80010d2:	d912      	bls.n	80010fa <HAL_PCD_IRQHandler+0x47a>
 80010d4:	f8c1 b180 	str.w	fp, [r1, #384]	; 0x180
 80010d8:	f830 302c 	ldrh.w	r3, [r0, ip, lsl #2]
 80010dc:	f423 4380 	bic.w	r3, r3, #16384	; 0x4000
 80010e0:	f023 0370 	bic.w	r3, r3, #112	; 0x70
 80010e4:	041b      	lsls	r3, r3, #16
 80010e6:	0c1b      	lsrs	r3, r3, #16
 80010e8:	f483 5300 	eor.w	r3, r3, #8192	; 0x2000
 80010ec:	f443 4300 	orr.w	r3, r3, #32768	; 0x8000
 80010f0:	f043 0380 	orr.w	r3, r3, #128	; 0x80
 80010f4:	f820 302c 	strh.w	r3, [r0, ip, lsl #2]
 80010f8:	e004      	b.n	8001104 <HAL_PCD_IRQHandler+0x484>
 80010fa:	1b52      	subs	r2, r2, r5
 80010fc:	f8c1 2180 	str.w	r2, [r1, #384]	; 0x180
 8001100:	2a00      	cmp	r2, #0
 8001102:	d0e9      	beq.n	80010d8 <HAL_PCD_IRQHandler+0x458>
 8001104:	f1be 0f00 	cmp.w	lr, #0
 8001108:	d112      	bne.n	8001130 <HAL_PCD_IRQHandler+0x4b0>
 800110a:	2328      	movs	r3, #40	; 0x28
 800110c:	fb03 4307 	mla	r3, r3, r7, r4
 8001110:	f893 2168 	ldrb.w	r2, [r3, #360]	; 0x168
 8001114:	f830 3022 	ldrh.w	r3, [r0, r2, lsl #2]
 8001118:	f423 43e0 	bic.w	r3, r3, #28672	; 0x7000
 800111c:	f023 0370 	bic.w	r3, r3, #112	; 0x70
 8001120:	041b      	lsls	r3, r3, #16
 8001122:	0c1b      	lsrs	r3, r3, #16
 8001124:	f443 4300 	orr.w	r3, r3, #32768	; 0x8000
 8001128:	f043 03c0 	orr.w	r3, r3, #192	; 0xc0
 800112c:	f820 3022 	strh.w	r3, [r0, r2, lsl #2]
 8001130:	b33d      	cbz	r5, 8001182 <HAL_PCD_IRQHandler+0x502>
 8001132:	2128      	movs	r1, #40	; 0x28
 8001134:	fb01 4107 	mla	r1, r1, r7, r4
 8001138:	462b      	mov	r3, r5
 800113a:	f8b1 2172 	ldrh.w	r2, [r1, #370]	; 0x172
 800113e:	e768      	b.n	8001012 <HAL_PCD_IRQHandler+0x392>
 8001140:	f830 302c 	ldrh.w	r3, [r0, ip, lsl #2]
 8001144:	f423 43e0 	bic.w	r3, r3, #28672	; 0x7000
 8001148:	f023 0370 	bic.w	r3, r3, #112	; 0x70
 800114c:	041b      	lsls	r3, r3, #16
 800114e:	0c1b      	lsrs	r3, r3, #16
 8001150:	f443 4300 	orr.w	r3, r3, #32768	; 0x8000
 8001154:	f043 03c0 	orr.w	r3, r3, #192	; 0xc0
 8001158:	f820 302c 	strh.w	r3, [r0, ip, lsl #2]
 800115c:	f891 2168 	ldrb.w	r2, [r1, #360]	; 0x168
 8001160:	f830 3022 	ldrh.w	r3, [r0, r2, lsl #2]
 8001164:	f413 4f80 	tst.w	r3, #16384	; 0x4000
 8001168:	f8b0 3050 	ldrh.w	r3, [r0, #80]	; 0x50
 800116c:	d058      	beq.n	8001220 <HAL_PCD_IRQHandler+0x5a0>
 800116e:	f200 4502 	addw	r5, r0, #1026	; 0x402
 8001172:	fa15 f383 	uxtah	r3, r5, r3
 8001176:	f833 5032 	ldrh.w	r5, [r3, r2, lsl #3]
 800117a:	f3c5 0509 	ubfx	r5, r5, #0, #10
 800117e:	2d00      	cmp	r5, #0
 8001180:	d19b      	bne.n	80010ba <HAL_PCD_IRQHandler+0x43a>
 8001182:	2128      	movs	r1, #40	; 0x28
 8001184:	fb01 4307 	mla	r3, r1, r7, r4
 8001188:	f8d3 2184 	ldr.w	r2, [r3, #388]	; 0x184
 800118c:	442a      	add	r2, r5
 800118e:	f8c3 2184 	str.w	r2, [r3, #388]	; 0x184
 8001192:	f8d3 217c 	ldr.w	r2, [r3, #380]	; 0x17c
 8001196:	442a      	add	r2, r5
 8001198:	f8c3 217c 	str.w	r2, [r3, #380]	; 0x17c
 800119c:	f8d3 2180 	ldr.w	r2, [r3, #384]	; 0x180
 80011a0:	b11a      	cbz	r2, 80011aa <HAL_PCD_IRQHandler+0x52a>
 80011a2:	f8d3 3178 	ldr.w	r3, [r3, #376]	; 0x178
 80011a6:	429d      	cmp	r5, r3
 80011a8:	d245      	bcs.n	8001236 <HAL_PCD_IRQHandler+0x5b6>
 80011aa:	2328      	movs	r3, #40	; 0x28
 80011ac:	fb03 4307 	mla	r3, r3, r7, r4
 80011b0:	4620      	mov	r0, r4
 80011b2:	f893 1168 	ldrb.w	r1, [r3, #360]	; 0x168
 80011b6:	f003 f967 	bl	8004488 <HAL_PCD_DataOutStageCallback>
 80011ba:	f018 0f80 	tst.w	r8, #128	; 0x80
 80011be:	f43f ad6b 	beq.w	8000c98 <HAL_PCD_IRQHandler+0x18>
 80011c2:	6820      	ldr	r0, [r4, #0]
 80011c4:	f830 3026 	ldrh.w	r3, [r0, r6, lsl #2]
 80011c8:	b29b      	uxth	r3, r3
 80011ca:	ea03 030a 	and.w	r3, r3, sl
 80011ce:	f443 4300 	orr.w	r3, r3, #32768	; 0x8000
 80011d2:	f820 3026 	strh.w	r3, [r0, r6, lsl #2]
 80011d6:	eb06 0686 	add.w	r6, r6, r6, lsl #2
 80011da:	eb04 06c6 	add.w	r6, r4, r6, lsl #3
 80011de:	f896 302b 	ldrb.w	r3, [r6, #43]	; 0x2b
 80011e2:	2b02      	cmp	r3, #2
 80011e4:	f896 3028 	ldrb.w	r3, [r6, #40]	; 0x28
 80011e8:	d13b      	bne.n	8001262 <HAL_PCD_IRQHandler+0x5e2>
 80011ea:	f418 7e80 	ands.w	lr, r8, #256	; 0x100
 80011ee:	d138      	bne.n	8001262 <HAL_PCD_IRQHandler+0x5e2>
 80011f0:	2128      	movs	r1, #40	; 0x28
 80011f2:	f8b0 c050 	ldrh.w	ip, [r0, #80]	; 0x50
 80011f6:	fb01 4207 	mla	r2, r1, r7, r4
 80011fa:	f200 4802 	addw	r8, r0, #1026	; 0x402
 80011fe:	fa18 fc8c 	uxtah	ip, r8, ip
 8001202:	f83c 3033 	ldrh.w	r3, [ip, r3, lsl #3]
 8001206:	6c15      	ldr	r5, [r2, #64]	; 0x40
 8001208:	f3c3 0309 	ubfx	r3, r3, #0, #10
 800120c:	42ab      	cmp	r3, r5
 800120e:	d31a      	bcc.n	8001246 <HAL_PCD_IRQHandler+0x5c6>
 8001210:	f8c2 e040 	str.w	lr, [r2, #64]	; 0x40
 8001214:	4620      	mov	r0, r4
 8001216:	f896 1028 	ldrb.w	r1, [r6, #40]	; 0x28
 800121a:	f003 f93e 	bl	800449a <HAL_PCD_DataInStageCallback>
 800121e:	e53b      	b.n	8000c98 <HAL_PCD_IRQHandler+0x18>
 8001220:	f200 4506 	addw	r5, r0, #1030	; 0x406
 8001224:	fa15 f383 	uxtah	r3, r5, r3
 8001228:	f833 5032 	ldrh.w	r5, [r3, r2, lsl #3]
 800122c:	f3c5 0509 	ubfx	r5, r5, #0, #10
 8001230:	2d00      	cmp	r5, #0
 8001232:	d0a6      	beq.n	8001182 <HAL_PCD_IRQHandler+0x502>
 8001234:	e780      	b.n	8001138 <HAL_PCD_IRQHandler+0x4b8>
 8001236:	fb01 4107 	mla	r1, r1, r7, r4
 800123a:	6820      	ldr	r0, [r4, #0]
 800123c:	f501 71b4 	add.w	r1, r1, #360	; 0x168
 8001240:	f001 fedc 	bl	8002ffc <USB_EPStartXfer>
 8001244:	e7b9      	b.n	80011ba <HAL_PCD_IRQHandler+0x53a>
 8001246:	1aed      	subs	r5, r5, r3
 8001248:	6415      	str	r5, [r2, #64]	; 0x40
 800124a:	6bd5      	ldr	r5, [r2, #60]	; 0x3c
 800124c:	fb07 1101 	mla	r1, r7, r1, r1
 8001250:	441d      	add	r5, r3
 8001252:	63d5      	str	r5, [r2, #60]	; 0x3c
 8001254:	6c55      	ldr	r5, [r2, #68]	; 0x44
 8001256:	4421      	add	r1, r4
 8001258:	442b      	add	r3, r5
 800125a:	6453      	str	r3, [r2, #68]	; 0x44
 800125c:	f001 fece 	bl	8002ffc <USB_EPStartXfer>
 8001260:	e51a      	b.n	8000c98 <HAL_PCD_IRQHandler+0x18>
 8001262:	2228      	movs	r2, #40	; 0x28
 8001264:	fb02 4207 	mla	r2, r2, r7, r4
 8001268:	f018 0e40 	ands.w	lr, r8, #64	; 0x40
 800126c:	6c11      	ldr	r1, [r2, #64]	; 0x40
 800126e:	b21b      	sxth	r3, r3
 8001270:	f8b0 2050 	ldrh.w	r2, [r0, #80]	; 0x50
 8001274:	f408 4580 	and.w	r5, r8, #16384	; 0x4000
 8001278:	f000 80e8 	beq.w	800144c <HAL_PCD_IRQHandler+0x7cc>
 800127c:	f200 4c02 	addw	ip, r0, #1026	; 0x402
 8001280:	fa1c f282 	uxtah	r2, ip, r2
 8001284:	f832 2033 	ldrh.w	r2, [r2, r3, lsl #3]
 8001288:	f04f 0e28 	mov.w	lr, #40	; 0x28
 800128c:	f3c2 0209 	ubfx	r2, r2, #0, #10
 8001290:	428a      	cmp	r2, r1
 8001292:	bf28      	it	cs
 8001294:	2100      	movcs	r1, #0
 8001296:	fb0e 4e07 	mla	lr, lr, r7, r4
 800129a:	bf38      	it	cc
 800129c:	1a89      	subcc	r1, r1, r2
 800129e:	f8ce 1040 	str.w	r1, [lr, #64]	; 0x40
 80012a2:	b2ad      	uxth	r5, r5
 80012a4:	2900      	cmp	r1, #0
 80012a6:	d15d      	bne.n	8001364 <HAL_PCD_IRQHandler+0x6e4>
 80012a8:	f896 2029 	ldrb.w	r2, [r6, #41]	; 0x29
 80012ac:	2a00      	cmp	r2, #0
 80012ae:	d144      	bne.n	800133a <HAL_PCD_IRQHandler+0x6ba>
 80012b0:	f8b0 2050 	ldrh.w	r2, [r0, #80]	; 0x50
 80012b4:	fa1c fc82 	uxtah	ip, ip, r2
 80012b8:	f83c 2033 	ldrh.w	r2, [ip, r3, lsl #3]
 80012bc:	f422 42f8 	bic.w	r2, r2, #31744	; 0x7c00
 80012c0:	0412      	lsls	r2, r2, #16
 80012c2:	0c12      	lsrs	r2, r2, #16
 80012c4:	f82c 2033 	strh.w	r2, [ip, r3, lsl #3]
 80012c8:	f83c 2033 	ldrh.w	r2, [ip, r3, lsl #3]
 80012cc:	b292      	uxth	r2, r2
 80012ce:	f442 4200 	orr.w	r2, r2, #32768	; 0x8000
 80012d2:	f82c 2033 	strh.w	r2, [ip, r3, lsl #3]
 80012d6:	f896 3029 	ldrb.w	r3, [r6, #41]	; 0x29
 80012da:	f896 2028 	ldrb.w	r2, [r6, #40]	; 0x28
 80012de:	bbab      	cbnz	r3, 800134c <HAL_PCD_IRQHandler+0x6cc>
 80012e0:	f8b0 3050 	ldrh.w	r3, [r0, #80]	; 0x50
 80012e4:	f200 4006 	addw	r0, r0, #1030	; 0x406
 80012e8:	fa10 f083 	uxtah	r0, r0, r3
 80012ec:	eb00 00c2 	add.w	r0, r0, r2, lsl #3
 80012f0:	8803      	ldrh	r3, [r0, #0]
 80012f2:	f423 43f8 	bic.w	r3, r3, #31744	; 0x7c00
 80012f6:	041b      	lsls	r3, r3, #16
 80012f8:	0c1b      	lsrs	r3, r3, #16
 80012fa:	8003      	strh	r3, [r0, #0]
 80012fc:	8803      	ldrh	r3, [r0, #0]
 80012fe:	b29b      	uxth	r3, r3
 8001300:	f443 4300 	orr.w	r3, r3, #32768	; 0x8000
 8001304:	8003      	strh	r3, [r0, #0]
 8001306:	4620      	mov	r0, r4
 8001308:	f896 1028 	ldrb.w	r1, [r6, #40]	; 0x28
 800130c:	f003 f8c5 	bl	800449a <HAL_PCD_DataInStageCallback>
 8001310:	2d00      	cmp	r5, #0
 8001312:	f000 80ed 	beq.w	80014f0 <HAL_PCD_IRQHandler+0x870>
 8001316:	f896 1028 	ldrb.w	r1, [r6, #40]	; 0x28
 800131a:	6822      	ldr	r2, [r4, #0]
 800131c:	f832 3021 	ldrh.w	r3, [r2, r1, lsl #2]
 8001320:	f423 43e0 	bic.w	r3, r3, #28672	; 0x7000
 8001324:	f023 0370 	bic.w	r3, r3, #112	; 0x70
 8001328:	041b      	lsls	r3, r3, #16
 800132a:	0c1b      	lsrs	r3, r3, #16
 800132c:	f443 4340 	orr.w	r3, r3, #49152	; 0xc000
 8001330:	f043 0380 	orr.w	r3, r3, #128	; 0x80
 8001334:	f822 3021 	strh.w	r3, [r2, r1, lsl #2]
 8001338:	e0da      	b.n	80014f0 <HAL_PCD_IRQHandler+0x870>
 800133a:	2a01      	cmp	r2, #1
 800133c:	bf02      	ittt	eq
 800133e:	f8b0 2050 	ldrheq.w	r2, [r0, #80]	; 0x50
 8001342:	fa1c fc82 	uxtaheq	ip, ip, r2
 8001346:	f82c 1033 	strheq.w	r1, [ip, r3, lsl #3]
 800134a:	e7c4      	b.n	80012d6 <HAL_PCD_IRQHandler+0x656>
 800134c:	2b01      	cmp	r3, #1
 800134e:	d1da      	bne.n	8001306 <HAL_PCD_IRQHandler+0x686>
 8001350:	f8b0 3050 	ldrh.w	r3, [r0, #80]	; 0x50
 8001354:	f200 4006 	addw	r0, r0, #1030	; 0x406
 8001358:	fa10 f083 	uxtah	r0, r0, r3
 800135c:	eb00 00c2 	add.w	r0, r0, r2, lsl #3
 8001360:	2300      	movs	r3, #0
 8001362:	e7cf      	b.n	8001304 <HAL_PCD_IRQHandler+0x684>
 8001364:	b16d      	cbz	r5, 8001382 <HAL_PCD_IRQHandler+0x702>
 8001366:	f830 1023 	ldrh.w	r1, [r0, r3, lsl #2]
 800136a:	f421 41e0 	bic.w	r1, r1, #28672	; 0x7000
 800136e:	f021 0170 	bic.w	r1, r1, #112	; 0x70
 8001372:	0409      	lsls	r1, r1, #16
 8001374:	0c09      	lsrs	r1, r1, #16
 8001376:	f441 4140 	orr.w	r1, r1, #49152	; 0xc000
 800137a:	f041 0180 	orr.w	r1, r1, #128	; 0x80
 800137e:	f820 1023 	strh.w	r1, [r0, r3, lsl #2]
 8001382:	2328      	movs	r3, #40	; 0x28
 8001384:	fb03 4307 	mla	r3, r3, r7, r4
 8001388:	f893 104c 	ldrb.w	r1, [r3, #76]	; 0x4c
 800138c:	2901      	cmp	r1, #1
 800138e:	f040 80af 	bne.w	80014f0 <HAL_PCD_IRQHandler+0x870>
 8001392:	6c5d      	ldr	r5, [r3, #68]	; 0x44
 8001394:	6bd9      	ldr	r1, [r3, #60]	; 0x3c
 8001396:	4415      	add	r5, r2
 8001398:	f8d3 e048 	ldr.w	lr, [r3, #72]	; 0x48
 800139c:	645d      	str	r5, [r3, #68]	; 0x44
 800139e:	6b9d      	ldr	r5, [r3, #56]	; 0x38
 80013a0:	4411      	add	r1, r2
 80013a2:	45ae      	cmp	lr, r5
 80013a4:	63d9      	str	r1, [r3, #60]	; 0x3c
 80013a6:	d326      	bcc.n	80013f6 <HAL_PCD_IRQHandler+0x776>
 80013a8:	ebae 0205 	sub.w	r2, lr, r5
 80013ac:	649a      	str	r2, [r3, #72]	; 0x48
 80013ae:	f896 2029 	ldrb.w	r2, [r6, #41]	; 0x29
 80013b2:	b2ab      	uxth	r3, r5
 80013b4:	2a00      	cmp	r2, #0
 80013b6:	d13c      	bne.n	8001432 <HAL_PCD_IRQHandler+0x7b2>
 80013b8:	f8b0 2050 	ldrh.w	r2, [r0, #80]	; 0x50
 80013bc:	f896 e028 	ldrb.w	lr, [r6, #40]	; 0x28
 80013c0:	fa1c fc82 	uxtah	ip, ip, r2
 80013c4:	eb0c 0cce 	add.w	ip, ip, lr, lsl #3
 80013c8:	bb15      	cbnz	r5, 8001410 <HAL_PCD_IRQHandler+0x790>
 80013ca:	f8bc 2000 	ldrh.w	r2, [ip]
 80013ce:	f422 42f8 	bic.w	r2, r2, #31744	; 0x7c00
 80013d2:	0412      	lsls	r2, r2, #16
 80013d4:	0c12      	lsrs	r2, r2, #16
 80013d6:	f8ac 2000 	strh.w	r2, [ip]
 80013da:	f8bc 2000 	ldrh.w	r2, [ip]
 80013de:	b292      	uxth	r2, r2
 80013e0:	f442 4200 	orr.w	r2, r2, #32768	; 0x8000
 80013e4:	f8ac 2000 	strh.w	r2, [ip]
 80013e8:	2228      	movs	r2, #40	; 0x28
 80013ea:	fb02 4707 	mla	r7, r2, r7, r4
 80013ee:	8e3a      	ldrh	r2, [r7, #48]	; 0x30
 80013f0:	f001 fdf5 	bl	8002fde <USB_WritePMA>
 80013f4:	e07c      	b.n	80014f0 <HAL_PCD_IRQHandler+0x870>
 80013f6:	f1be 0f00 	cmp.w	lr, #0
 80013fa:	d103      	bne.n	8001404 <HAL_PCD_IRQHandler+0x784>
 80013fc:	4615      	mov	r5, r2
 80013fe:	f883 e04c 	strb.w	lr, [r3, #76]	; 0x4c
 8001402:	e7d4      	b.n	80013ae <HAL_PCD_IRQHandler+0x72e>
 8001404:	2200      	movs	r2, #0
 8001406:	4675      	mov	r5, lr
 8001408:	f883 204c 	strb.w	r2, [r3, #76]	; 0x4c
 800140c:	649a      	str	r2, [r3, #72]	; 0x48
 800140e:	e7ce      	b.n	80013ae <HAL_PCD_IRQHandler+0x72e>
 8001410:	2d3e      	cmp	r5, #62	; 0x3e
 8001412:	d806      	bhi.n	8001422 <HAL_PCD_IRQHandler+0x7a2>
 8001414:	086a      	lsrs	r2, r5, #1
 8001416:	07ed      	lsls	r5, r5, #31
 8001418:	bf48      	it	mi
 800141a:	3201      	addmi	r2, #1
 800141c:	0292      	lsls	r2, r2, #10
 800141e:	b292      	uxth	r2, r2
 8001420:	e7e0      	b.n	80013e4 <HAL_PCD_IRQHandler+0x764>
 8001422:	096a      	lsrs	r2, r5, #5
 8001424:	06ed      	lsls	r5, r5, #27
 8001426:	bf08      	it	eq
 8001428:	f102 32ff 	addeq.w	r2, r2, #4294967295
 800142c:	ea49 2282 	orr.w	r2, r9, r2, lsl #10
 8001430:	e7f5      	b.n	800141e <HAL_PCD_IRQHandler+0x79e>
 8001432:	2a01      	cmp	r2, #1
 8001434:	d1d8      	bne.n	80013e8 <HAL_PCD_IRQHandler+0x768>
 8001436:	f8b0 2050 	ldrh.w	r2, [r0, #80]	; 0x50
 800143a:	f896 5028 	ldrb.w	r5, [r6, #40]	; 0x28
 800143e:	fa1c fc82 	uxtah	ip, ip, r2
 8001442:	eb0c 0cc5 	add.w	ip, ip, r5, lsl #3
 8001446:	f8ac 3000 	strh.w	r3, [ip]
 800144a:	e7cd      	b.n	80013e8 <HAL_PCD_IRQHandler+0x768>
 800144c:	f200 4c06 	addw	ip, r0, #1030	; 0x406
 8001450:	fa1c f282 	uxtah	r2, ip, r2
 8001454:	f832 2033 	ldrh.w	r2, [r2, r3, lsl #3]
 8001458:	b2ad      	uxth	r5, r5
 800145a:	f3c2 0209 	ubfx	r2, r2, #0, #10
 800145e:	428a      	cmp	r2, r1
 8001460:	bf88      	it	hi
 8001462:	4671      	movhi	r1, lr
 8001464:	f04f 0e28 	mov.w	lr, #40	; 0x28
 8001468:	fb0e 4e07 	mla	lr, lr, r7, r4
 800146c:	bf98      	it	ls
 800146e:	1a89      	subls	r1, r1, r2
 8001470:	f8ce 1040 	str.w	r1, [lr, #64]	; 0x40
 8001474:	2900      	cmp	r1, #0
 8001476:	d164      	bne.n	8001542 <HAL_PCD_IRQHandler+0x8c2>
 8001478:	f896 2029 	ldrb.w	r2, [r6, #41]	; 0x29
 800147c:	2a00      	cmp	r2, #0
 800147e:	d14b      	bne.n	8001518 <HAL_PCD_IRQHandler+0x898>
 8001480:	f8b0 1050 	ldrh.w	r1, [r0, #80]	; 0x50
 8001484:	f200 4202 	addw	r2, r0, #1026	; 0x402
 8001488:	fa12 f181 	uxtah	r1, r2, r1
 800148c:	f831 2033 	ldrh.w	r2, [r1, r3, lsl #3]
 8001490:	f422 42f8 	bic.w	r2, r2, #31744	; 0x7c00
 8001494:	0412      	lsls	r2, r2, #16
 8001496:	0c12      	lsrs	r2, r2, #16
 8001498:	f821 2033 	strh.w	r2, [r1, r3, lsl #3]
 800149c:	f831 2033 	ldrh.w	r2, [r1, r3, lsl #3]
 80014a0:	b292      	uxth	r2, r2
 80014a2:	f442 4200 	orr.w	r2, r2, #32768	; 0x8000
 80014a6:	f821 2033 	strh.w	r2, [r1, r3, lsl #3]
 80014aa:	f896 3029 	ldrb.w	r3, [r6, #41]	; 0x29
 80014ae:	f896 2028 	ldrb.w	r2, [r6, #40]	; 0x28
 80014b2:	2b00      	cmp	r3, #0
 80014b4:	d13b      	bne.n	800152e <HAL_PCD_IRQHandler+0x8ae>
 80014b6:	f8b0 3050 	ldrh.w	r3, [r0, #80]	; 0x50
 80014ba:	fa1c fc83 	uxtah	ip, ip, r3
 80014be:	eb0c 0cc2 	add.w	ip, ip, r2, lsl #3
 80014c2:	f8bc 3000 	ldrh.w	r3, [ip]
 80014c6:	f423 43f8 	bic.w	r3, r3, #31744	; 0x7c00
 80014ca:	041b      	lsls	r3, r3, #16
 80014cc:	0c1b      	lsrs	r3, r3, #16
 80014ce:	f8ac 3000 	strh.w	r3, [ip]
 80014d2:	f8bc 3000 	ldrh.w	r3, [ip]
 80014d6:	b29b      	uxth	r3, r3
 80014d8:	f443 4300 	orr.w	r3, r3, #32768	; 0x8000
 80014dc:	f8ac 3000 	strh.w	r3, [ip]
 80014e0:	4620      	mov	r0, r4
 80014e2:	f896 1028 	ldrb.w	r1, [r6, #40]	; 0x28
 80014e6:	f002 ffd8 	bl	800449a <HAL_PCD_DataInStageCallback>
 80014ea:	2d00      	cmp	r5, #0
 80014ec:	f43f af13 	beq.w	8001316 <HAL_PCD_IRQHandler+0x696>
 80014f0:	f896 1028 	ldrb.w	r1, [r6, #40]	; 0x28
 80014f4:	6822      	ldr	r2, [r4, #0]
 80014f6:	f832 3021 	ldrh.w	r3, [r2, r1, lsl #2]
 80014fa:	b29b      	uxth	r3, r3
 80014fc:	f423 43e0 	bic.w	r3, r3, #28672	; 0x7000
 8001500:	f023 0340 	bic.w	r3, r3, #64	; 0x40
 8001504:	f083 0330 	eor.w	r3, r3, #48	; 0x30
 8001508:	f443 4300 	orr.w	r3, r3, #32768	; 0x8000
 800150c:	f043 0380 	orr.w	r3, r3, #128	; 0x80
 8001510:	f822 3021 	strh.w	r3, [r2, r1, lsl #2]
 8001514:	f7ff bbc0 	b.w	8000c98 <HAL_PCD_IRQHandler+0x18>
 8001518:	2a01      	cmp	r2, #1
 800151a:	bf01      	itttt	eq
 800151c:	f8b0 2050 	ldrheq.w	r2, [r0, #80]	; 0x50
 8001520:	f200 4702 	addweq	r7, r0, #1026	; 0x402
 8001524:	fa17 f282 	uxtaheq	r2, r7, r2
 8001528:	f822 1033 	strheq.w	r1, [r2, r3, lsl #3]
 800152c:	e7bd      	b.n	80014aa <HAL_PCD_IRQHandler+0x82a>
 800152e:	2b01      	cmp	r3, #1
 8001530:	d1d6      	bne.n	80014e0 <HAL_PCD_IRQHandler+0x860>
 8001532:	f8b0 3050 	ldrh.w	r3, [r0, #80]	; 0x50
 8001536:	fa1c fc83 	uxtah	ip, ip, r3
 800153a:	eb0c 0cc2 	add.w	ip, ip, r2, lsl #3
 800153e:	2300      	movs	r3, #0
 8001540:	e7cc      	b.n	80014dc <HAL_PCD_IRQHandler+0x85c>
 8001542:	b96d      	cbnz	r5, 8001560 <HAL_PCD_IRQHandler+0x8e0>
 8001544:	f830 1023 	ldrh.w	r1, [r0, r3, lsl #2]
 8001548:	f421 41e0 	bic.w	r1, r1, #28672	; 0x7000
 800154c:	f021 0170 	bic.w	r1, r1, #112	; 0x70
 8001550:	0409      	lsls	r1, r1, #16
 8001552:	0c09      	lsrs	r1, r1, #16
 8001554:	f441 4140 	orr.w	r1, r1, #49152	; 0xc000
 8001558:	f041 0180 	orr.w	r1, r1, #128	; 0x80
 800155c:	f820 1023 	strh.w	r1, [r0, r3, lsl #2]
 8001560:	2528      	movs	r5, #40	; 0x28
 8001562:	fb05 4507 	mla	r5, r5, r7, r4
 8001566:	f895 304c 	ldrb.w	r3, [r5, #76]	; 0x4c
 800156a:	2b01      	cmp	r3, #1
 800156c:	d1c0      	bne.n	80014f0 <HAL_PCD_IRQHandler+0x870>
 800156e:	6c6b      	ldr	r3, [r5, #68]	; 0x44
 8001570:	6be9      	ldr	r1, [r5, #60]	; 0x3c
 8001572:	4413      	add	r3, r2
 8001574:	f8d5 e048 	ldr.w	lr, [r5, #72]	; 0x48
 8001578:	646b      	str	r3, [r5, #68]	; 0x44
 800157a:	6bab      	ldr	r3, [r5, #56]	; 0x38
 800157c:	4411      	add	r1, r2
 800157e:	459e      	cmp	lr, r3
 8001580:	63e9      	str	r1, [r5, #60]	; 0x3c
 8001582:	d325      	bcc.n	80015d0 <HAL_PCD_IRQHandler+0x950>
 8001584:	ebae 0203 	sub.w	r2, lr, r3
 8001588:	64aa      	str	r2, [r5, #72]	; 0x48
 800158a:	f896 2029 	ldrb.w	r2, [r6, #41]	; 0x29
 800158e:	b29d      	uxth	r5, r3
 8001590:	2a00      	cmp	r2, #0
 8001592:	d13d      	bne.n	8001610 <HAL_PCD_IRQHandler+0x990>
 8001594:	f8b0 2050 	ldrh.w	r2, [r0, #80]	; 0x50
 8001598:	f896 e028 	ldrb.w	lr, [r6, #40]	; 0x28
 800159c:	fa1c fc82 	uxtah	ip, ip, r2
 80015a0:	eb0c 0cce 	add.w	ip, ip, lr, lsl #3
 80015a4:	bb0b      	cbnz	r3, 80015ea <HAL_PCD_IRQHandler+0x96a>
 80015a6:	f8bc 3000 	ldrh.w	r3, [ip]
 80015aa:	f423 43f8 	bic.w	r3, r3, #31744	; 0x7c00
 80015ae:	041b      	lsls	r3, r3, #16
 80015b0:	0c1b      	lsrs	r3, r3, #16
 80015b2:	f8ac 3000 	strh.w	r3, [ip]
 80015b6:	f8bc 3000 	ldrh.w	r3, [ip]
 80015ba:	b29b      	uxth	r3, r3
 80015bc:	f443 4300 	orr.w	r3, r3, #32768	; 0x8000
 80015c0:	f8ac 3000 	strh.w	r3, [ip]
 80015c4:	2328      	movs	r3, #40	; 0x28
 80015c6:	fb03 4707 	mla	r7, r3, r7, r4
 80015ca:	462b      	mov	r3, r5
 80015cc:	8e7a      	ldrh	r2, [r7, #50]	; 0x32
 80015ce:	e70f      	b.n	80013f0 <HAL_PCD_IRQHandler+0x770>
 80015d0:	f1be 0f00 	cmp.w	lr, #0
 80015d4:	d103      	bne.n	80015de <HAL_PCD_IRQHandler+0x95e>
 80015d6:	4613      	mov	r3, r2
 80015d8:	f885 e04c 	strb.w	lr, [r5, #76]	; 0x4c
 80015dc:	e7d5      	b.n	800158a <HAL_PCD_IRQHandler+0x90a>
 80015de:	2300      	movs	r3, #0
 80015e0:	64ab      	str	r3, [r5, #72]	; 0x48
 80015e2:	f885 304c 	strb.w	r3, [r5, #76]	; 0x4c
 80015e6:	4673      	mov	r3, lr
 80015e8:	e7cf      	b.n	800158a <HAL_PCD_IRQHandler+0x90a>
 80015ea:	2b3e      	cmp	r3, #62	; 0x3e
 80015ec:	d808      	bhi.n	8001600 <HAL_PCD_IRQHandler+0x980>
 80015ee:	085a      	lsrs	r2, r3, #1
 80015f0:	07db      	lsls	r3, r3, #31
 80015f2:	bf48      	it	mi
 80015f4:	3201      	addmi	r2, #1
 80015f6:	0292      	lsls	r2, r2, #10
 80015f8:	b292      	uxth	r2, r2
 80015fa:	f8ac 2000 	strh.w	r2, [ip]
 80015fe:	e7e1      	b.n	80015c4 <HAL_PCD_IRQHandler+0x944>
 8001600:	095a      	lsrs	r2, r3, #5
 8001602:	06db      	lsls	r3, r3, #27
 8001604:	bf08      	it	eq
 8001606:	f102 32ff 	addeq.w	r2, r2, #4294967295
 800160a:	ea49 2282 	orr.w	r2, r9, r2, lsl #10
 800160e:	e7f3      	b.n	80015f8 <HAL_PCD_IRQHandler+0x978>
 8001610:	2a01      	cmp	r2, #1
 8001612:	d1d7      	bne.n	80015c4 <HAL_PCD_IRQHandler+0x944>
 8001614:	f8b0 3050 	ldrh.w	r3, [r0, #80]	; 0x50
 8001618:	f896 2028 	ldrb.w	r2, [r6, #40]	; 0x28
 800161c:	fa1c fc83 	uxtah	ip, ip, r3
 8001620:	eb0c 0cc2 	add.w	ip, ip, r2, lsl #3
 8001624:	f8ac 5000 	strh.w	r5, [ip]
 8001628:	e7cc      	b.n	80015c4 <HAL_PCD_IRQHandler+0x944>
 800162a:	4620      	mov	r0, r4
 800162c:	f002 ff54 	bl	80044d8 <HAL_PCD_SuspendCallback>
 8001630:	f7ff bbe3 	b.w	8000dfa <HAL_PCD_IRQHandler+0x17a>
 8001634:	ffff8f0f 	.word	0xffff8f0f
 8001638:	ffff8000 	.word	0xffff8000

0800163c <HAL_PCD_EP_Open>:
 800163c:	f011 0f80 	tst.w	r1, #128	; 0x80
 8001640:	b570      	push	{r4, r5, r6, lr}
 8001642:	4604      	mov	r4, r0
 8001644:	f001 0507 	and.w	r5, r1, #7
 8001648:	f04f 0028 	mov.w	r0, #40	; 0x28
 800164c:	d01c      	beq.n	8001688 <HAL_PCD_EP_Open+0x4c>
 800164e:	fb05 0000 	mla	r0, r5, r0, r0
 8001652:	1821      	adds	r1, r4, r0
 8001654:	2001      	movs	r0, #1
 8001656:	7048      	strb	r0, [r1, #1]
 8001658:	610a      	str	r2, [r1, #16]
 800165a:	784a      	ldrb	r2, [r1, #1]
 800165c:	700d      	strb	r5, [r1, #0]
 800165e:	70cb      	strb	r3, [r1, #3]
 8001660:	b102      	cbz	r2, 8001664 <HAL_PCD_EP_Open+0x28>
 8001662:	81cd      	strh	r5, [r1, #14]
 8001664:	2b02      	cmp	r3, #2
 8001666:	bf04      	itt	eq
 8001668:	2300      	moveq	r3, #0
 800166a:	710b      	strbeq	r3, [r1, #4]
 800166c:	f894 32a8 	ldrb.w	r3, [r4, #680]	; 0x2a8
 8001670:	2b01      	cmp	r3, #1
 8001672:	d013      	beq.n	800169c <HAL_PCD_EP_Open+0x60>
 8001674:	2301      	movs	r3, #1
 8001676:	6820      	ldr	r0, [r4, #0]
 8001678:	f884 32a8 	strb.w	r3, [r4, #680]	; 0x2a8
 800167c:	f001 f9f4 	bl	8002a68 <USB_ActivateEndpoint>
 8001680:	2000      	movs	r0, #0
 8001682:	f884 02a8 	strb.w	r0, [r4, #680]	; 0x2a8
 8001686:	bd70      	pop	{r4, r5, r6, pc}
 8001688:	2600      	movs	r6, #0
 800168a:	fb00 4105 	mla	r1, r0, r5, r4
 800168e:	fb00 4005 	mla	r0, r0, r5, r4
 8001692:	f501 71b4 	add.w	r1, r1, #360	; 0x168
 8001696:	f880 6169 	strb.w	r6, [r0, #361]	; 0x169
 800169a:	e7dd      	b.n	8001658 <HAL_PCD_EP_Open+0x1c>
 800169c:	2002      	movs	r0, #2
 800169e:	e7f2      	b.n	8001686 <HAL_PCD_EP_Open+0x4a>

080016a0 <HAL_PCD_EP_Close>:
 80016a0:	f011 0f80 	tst.w	r1, #128	; 0x80
 80016a4:	b510      	push	{r4, lr}
 80016a6:	f04f 0328 	mov.w	r3, #40	; 0x28
 80016aa:	4604      	mov	r4, r0
 80016ac:	f001 0207 	and.w	r2, r1, #7
 80016b0:	d013      	beq.n	80016da <HAL_PCD_EP_Close+0x3a>
 80016b2:	fb02 3303 	mla	r3, r2, r3, r3
 80016b6:	18c1      	adds	r1, r0, r3
 80016b8:	2301      	movs	r3, #1
 80016ba:	704b      	strb	r3, [r1, #1]
 80016bc:	700a      	strb	r2, [r1, #0]
 80016be:	f894 32a8 	ldrb.w	r3, [r4, #680]	; 0x2a8
 80016c2:	2b01      	cmp	r3, #1
 80016c4:	d013      	beq.n	80016ee <HAL_PCD_EP_Close+0x4e>
 80016c6:	2301      	movs	r3, #1
 80016c8:	6820      	ldr	r0, [r4, #0]
 80016ca:	f884 32a8 	strb.w	r3, [r4, #680]	; 0x2a8
 80016ce:	f001 fb27 	bl	8002d20 <USB_DeactivateEndpoint>
 80016d2:	2000      	movs	r0, #0
 80016d4:	f884 02a8 	strb.w	r0, [r4, #680]	; 0x2a8
 80016d8:	bd10      	pop	{r4, pc}
 80016da:	fb03 0102 	mla	r1, r3, r2, r0
 80016de:	fb03 0302 	mla	r3, r3, r2, r0
 80016e2:	2000      	movs	r0, #0
 80016e4:	f501 71b4 	add.w	r1, r1, #360	; 0x168
 80016e8:	f883 0169 	strb.w	r0, [r3, #361]	; 0x169
 80016ec:	e7e6      	b.n	80016bc <HAL_PCD_EP_Close+0x1c>
 80016ee:	2002      	movs	r0, #2
 80016f0:	e7f2      	b.n	80016d8 <HAL_PCD_EP_Close+0x38>

080016f2 <HAL_PCD_EP_Receive>:
 80016f2:	b570      	push	{r4, r5, r6, lr}
 80016f4:	2628      	movs	r6, #40	; 0x28
 80016f6:	2500      	movs	r5, #0
 80016f8:	f001 0107 	and.w	r1, r1, #7
 80016fc:	fb06 0401 	mla	r4, r6, r1, r0
 8001700:	6800      	ldr	r0, [r0, #0]
 8001702:	f884 1168 	strb.w	r1, [r4, #360]	; 0x168
 8001706:	e9c4 235f 	strd	r2, r3, [r4, #380]	; 0x17c
 800170a:	f8c4 5184 	str.w	r5, [r4, #388]	; 0x184
 800170e:	f884 5169 	strb.w	r5, [r4, #361]	; 0x169
 8001712:	f504 71b4 	add.w	r1, r4, #360	; 0x168
 8001716:	f001 fc71 	bl	8002ffc <USB_EPStartXfer>
 800171a:	4628      	mov	r0, r5
 800171c:	bd70      	pop	{r4, r5, r6, pc}

0800171e <HAL_PCD_EP_GetRxCount>:
 800171e:	2328      	movs	r3, #40	; 0x28
 8001720:	f001 0107 	and.w	r1, r1, #7
 8001724:	fb03 0001 	mla	r0, r3, r1, r0
 8001728:	f8d0 0184 	ldr.w	r0, [r0, #388]	; 0x184
 800172c:	4770      	bx	lr

0800172e <HAL_PCD_EP_Transmit>:
 800172e:	b570      	push	{r4, r5, r6, lr}
 8001730:	2428      	movs	r4, #40	; 0x28
 8001732:	f001 0107 	and.w	r1, r1, #7
 8001736:	fb04 0501 	mla	r5, r4, r1, r0
 800173a:	2600      	movs	r6, #0
 800173c:	e9c5 230f 	strd	r2, r3, [r5, #60]	; 0x3c
 8001740:	2201      	movs	r2, #1
 8001742:	64ab      	str	r3, [r5, #72]	; 0x48
 8001744:	eb01 0381 	add.w	r3, r1, r1, lsl #2
 8001748:	eb00 03c3 	add.w	r3, r0, r3, lsl #3
 800174c:	f885 204c 	strb.w	r2, [r5, #76]	; 0x4c
 8001750:	646e      	str	r6, [r5, #68]	; 0x44
 8001752:	f883 1028 	strb.w	r1, [r3, #40]	; 0x28
 8001756:	fb01 4104 	mla	r1, r1, r4, r4
 800175a:	f883 2029 	strb.w	r2, [r3, #41]	; 0x29
 800175e:	4401      	add	r1, r0
 8001760:	6800      	ldr	r0, [r0, #0]
 8001762:	f001 fc4b 	bl	8002ffc <USB_EPStartXfer>
 8001766:	4630      	mov	r0, r6
 8001768:	bd70      	pop	{r4, r5, r6, pc}

0800176a <HAL_PCD_EP_SetStall>:
 800176a:	b510      	push	{r4, lr}
 800176c:	4604      	mov	r4, r0
 800176e:	6863      	ldr	r3, [r4, #4]
 8001770:	f001 0007 	and.w	r0, r1, #7
 8001774:	4298      	cmp	r0, r3
 8001776:	d824      	bhi.n	80017c2 <HAL_PCD_EP_SetStall+0x58>
 8001778:	f011 0f80 	tst.w	r1, #128	; 0x80
 800177c:	f04f 0328 	mov.w	r3, #40	; 0x28
 8001780:	d015      	beq.n	80017ae <HAL_PCD_EP_SetStall+0x44>
 8001782:	fb00 3303 	mla	r3, r0, r3, r3
 8001786:	18e2      	adds	r2, r4, r3
 8001788:	2301      	movs	r3, #1
 800178a:	7053      	strb	r3, [r2, #1]
 800178c:	2301      	movs	r3, #1
 800178e:	7010      	strb	r0, [r2, #0]
 8001790:	7093      	strb	r3, [r2, #2]
 8001792:	f894 12a8 	ldrb.w	r1, [r4, #680]	; 0x2a8
 8001796:	4299      	cmp	r1, r3
 8001798:	d015      	beq.n	80017c6 <HAL_PCD_EP_SetStall+0x5c>
 800179a:	4611      	mov	r1, r2
 800179c:	6820      	ldr	r0, [r4, #0]
 800179e:	f884 32a8 	strb.w	r3, [r4, #680]	; 0x2a8
 80017a2:	f001 fb9c 	bl	8002ede <USB_EPSetStall>
 80017a6:	2000      	movs	r0, #0
 80017a8:	f884 02a8 	strb.w	r0, [r4, #680]	; 0x2a8
 80017ac:	bd10      	pop	{r4, pc}
 80017ae:	fb03 4201 	mla	r2, r3, r1, r4
 80017b2:	fb03 4301 	mla	r3, r3, r1, r4
 80017b6:	2100      	movs	r1, #0
 80017b8:	f502 72b4 	add.w	r2, r2, #360	; 0x168
 80017bc:	f883 1169 	strb.w	r1, [r3, #361]	; 0x169
 80017c0:	e7e4      	b.n	800178c <HAL_PCD_EP_SetStall+0x22>
 80017c2:	2001      	movs	r0, #1
 80017c4:	e7f2      	b.n	80017ac <HAL_PCD_EP_SetStall+0x42>
 80017c6:	2002      	movs	r0, #2
 80017c8:	e7f0      	b.n	80017ac <HAL_PCD_EP_SetStall+0x42>

080017ca <HAL_PCD_EP_ClrStall>:
 80017ca:	b538      	push	{r3, r4, r5, lr}
 80017cc:	6843      	ldr	r3, [r0, #4]
 80017ce:	f001 020f 	and.w	r2, r1, #15
 80017d2:	429a      	cmp	r2, r3
 80017d4:	4604      	mov	r4, r0
 80017d6:	d826      	bhi.n	8001826 <HAL_PCD_EP_ClrStall+0x5c>
 80017d8:	f011 0f80 	tst.w	r1, #128	; 0x80
 80017dc:	f04f 0328 	mov.w	r3, #40	; 0x28
 80017e0:	f001 0207 	and.w	r2, r1, #7
 80017e4:	d015      	beq.n	8001812 <HAL_PCD_EP_ClrStall+0x48>
 80017e6:	fb02 3303 	mla	r3, r2, r3, r3
 80017ea:	18c1      	adds	r1, r0, r3
 80017ec:	2301      	movs	r3, #1
 80017ee:	704b      	strb	r3, [r1, #1]
 80017f0:	2500      	movs	r5, #0
 80017f2:	700a      	strb	r2, [r1, #0]
 80017f4:	708d      	strb	r5, [r1, #2]
 80017f6:	f894 32a8 	ldrb.w	r3, [r4, #680]	; 0x2a8
 80017fa:	2b01      	cmp	r3, #1
 80017fc:	d015      	beq.n	800182a <HAL_PCD_EP_ClrStall+0x60>
 80017fe:	2301      	movs	r3, #1
 8001800:	6820      	ldr	r0, [r4, #0]
 8001802:	f884 32a8 	strb.w	r3, [r4, #680]	; 0x2a8
 8001806:	f001 fb8a 	bl	8002f1e <USB_EPClearStall>
 800180a:	4628      	mov	r0, r5
 800180c:	f884 52a8 	strb.w	r5, [r4, #680]	; 0x2a8
 8001810:	bd38      	pop	{r3, r4, r5, pc}
 8001812:	fb03 0102 	mla	r1, r3, r2, r0
 8001816:	fb03 0302 	mla	r3, r3, r2, r0
 800181a:	2000      	movs	r0, #0
 800181c:	f501 71b4 	add.w	r1, r1, #360	; 0x168
 8001820:	f883 0169 	strb.w	r0, [r3, #361]	; 0x169
 8001824:	e7e4      	b.n	80017f0 <HAL_PCD_EP_ClrStall+0x26>
 8001826:	2001      	movs	r0, #1
 8001828:	e7f2      	b.n	8001810 <HAL_PCD_EP_ClrStall+0x46>
 800182a:	2002      	movs	r0, #2
 800182c:	e7f0      	b.n	8001810 <HAL_PCD_EP_ClrStall+0x46>

0800182e <HAL_PCDEx_PMAConfig>:
 800182e:	b530      	push	{r4, r5, lr}
 8001830:	2528      	movs	r5, #40	; 0x28
 8001832:	f011 0f80 	tst.w	r1, #128	; 0x80
 8001836:	bf15      	itete	ne
 8001838:	f001 0407 	andne.w	r4, r1, #7
 800183c:	fb05 0001 	mlaeq	r0, r5, r1, r0
 8001840:	fb04 5505 	mlane	r5, r4, r5, r5
 8001844:	f500 70b4 	addeq.w	r0, r0, #360	; 0x168
 8001848:	bf18      	it	ne
 800184a:	1940      	addne	r0, r0, r5
 800184c:	b299      	uxth	r1, r3
 800184e:	b91a      	cbnz	r2, 8001858 <HAL_PCDEx_PMAConfig+0x2a>
 8001850:	7302      	strb	r2, [r0, #12]
 8001852:	80c1      	strh	r1, [r0, #6]
 8001854:	2000      	movs	r0, #0
 8001856:	bd30      	pop	{r4, r5, pc}
 8001858:	2201      	movs	r2, #1
 800185a:	6083      	str	r3, [r0, #8]
 800185c:	7302      	strb	r2, [r0, #12]
 800185e:	e7f9      	b.n	8001854 <HAL_PCDEx_PMAConfig+0x26>

08001860 <HAL_PCDEx_ActivateLPM>:
 8001860:	2100      	movs	r1, #0
 8001862:	2301      	movs	r3, #1
 8001864:	6802      	ldr	r2, [r0, #0]
 8001866:	f880 12e0 	strb.w	r1, [r0, #736]	; 0x2e0
 800186a:	f8c0 32e8 	str.w	r3, [r0, #744]	; 0x2e8
 800186e:	f8b2 3054 	ldrh.w	r3, [r2, #84]	; 0x54
 8001872:	4608      	mov	r0, r1
 8001874:	b29b      	uxth	r3, r3
 8001876:	f043 0301 	orr.w	r3, r3, #1
 800187a:	f8a2 3054 	strh.w	r3, [r2, #84]	; 0x54
 800187e:	f8b2 3054 	ldrh.w	r3, [r2, #84]	; 0x54
 8001882:	b29b      	uxth	r3, r3
 8001884:	f043 0302 	orr.w	r3, r3, #2
 8001888:	f8a2 3054 	strh.w	r3, [r2, #84]	; 0x54
 800188c:	4770      	bx	lr
	...

08001890 <HAL_PWREx_GetVoltageRange>:
 8001890:	4b02      	ldr	r3, [pc, #8]	; (800189c <HAL_PWREx_GetVoltageRange+0xc>)
 8001892:	6818      	ldr	r0, [r3, #0]
 8001894:	f400 60c0 	and.w	r0, r0, #1536	; 0x600
 8001898:	4770      	bx	lr
 800189a:	bf00      	nop
 800189c:	40007000 	.word	0x40007000

080018a0 <HAL_PWREx_EnableVddUSB>:
 80018a0:	4a02      	ldr	r2, [pc, #8]	; (80018ac <HAL_PWREx_EnableVddUSB+0xc>)
 80018a2:	6853      	ldr	r3, [r2, #4]
 80018a4:	f443 6380 	orr.w	r3, r3, #1024	; 0x400
 80018a8:	6053      	str	r3, [r2, #4]
 80018aa:	4770      	bx	lr
 80018ac:	40007000 	.word	0x40007000

080018b0 <HAL_PWREx_DisableUCPDDeadBattery>:
 80018b0:	4a02      	ldr	r2, [pc, #8]	; (80018bc <HAL_PWREx_DisableUCPDDeadBattery+0xc>)
 80018b2:	6893      	ldr	r3, [r2, #8]
 80018b4:	f443 4380 	orr.w	r3, r3, #16384	; 0x4000
 80018b8:	6093      	str	r3, [r2, #8]
 80018ba:	4770      	bx	lr
 80018bc:	40007000 	.word	0x40007000

080018c0 <HAL_PWREx_SMPS_GetEffectiveMode>:
 80018c0:	4b06      	ldr	r3, [pc, #24]	; (80018dc <HAL_PWREx_SMPS_GetEffectiveMode+0x1c>)
 80018c2:	691b      	ldr	r3, [r3, #16]
 80018c4:	f413 5080 	ands.w	r0, r3, #4096	; 0x1000
 80018c8:	d105      	bne.n	80018d6 <HAL_PWREx_SMPS_GetEffectiveMode+0x16>
 80018ca:	f413 4f00 	tst.w	r3, #32768	; 0x8000
 80018ce:	bf08      	it	eq
 80018d0:	f44f 4000 	moveq.w	r0, #32768	; 0x8000
 80018d4:	4770      	bx	lr
 80018d6:	f44f 5080 	mov.w	r0, #4096	; 0x1000
 80018da:	4770      	bx	lr
 80018dc:	40007000 	.word	0x40007000

080018e0 <HAL_PWREx_ControlVoltageScaling>:
 80018e0:	4a17      	ldr	r2, [pc, #92]	; (8001940 <HAL_PWREx_ControlVoltageScaling+0x60>)
 80018e2:	b510      	push	{r4, lr}
 80018e4:	4601      	mov	r1, r0
 80018e6:	6814      	ldr	r4, [r2, #0]
 80018e8:	f7ff ffea 	bl	80018c0 <HAL_PWREx_SMPS_GetEffectiveMode>
 80018ec:	f5b0 4f00 	cmp.w	r0, #32768	; 0x8000
 80018f0:	d024      	beq.n	800193c <HAL_PWREx_ControlVoltageScaling+0x5c>
 80018f2:	68d3      	ldr	r3, [r2, #12]
 80018f4:	041b      	lsls	r3, r3, #16
 80018f6:	d421      	bmi.n	800193c <HAL_PWREx_ControlVoltageScaling+0x5c>
 80018f8:	f404 64c0 	and.w	r4, r4, #1536	; 0x600
 80018fc:	428c      	cmp	r4, r1
 80018fe:	d101      	bne.n	8001904 <HAL_PWREx_ControlVoltageScaling+0x24>
 8001900:	2000      	movs	r0, #0
 8001902:	bd10      	pop	{r4, pc}
 8001904:	6813      	ldr	r3, [r2, #0]
 8001906:	f423 63c0 	bic.w	r3, r3, #1536	; 0x600
 800190a:	430b      	orrs	r3, r1
 800190c:	6013      	str	r3, [r2, #0]
 800190e:	4b0d      	ldr	r3, [pc, #52]	; (8001944 <HAL_PWREx_ControlVoltageScaling+0x64>)
 8001910:	490d      	ldr	r1, [pc, #52]	; (8001948 <HAL_PWREx_ControlVoltageScaling+0x68>)
 8001912:	681b      	ldr	r3, [r3, #0]
 8001914:	fbb3 f1f1 	udiv	r1, r3, r1
 8001918:	2332      	movs	r3, #50	; 0x32
 800191a:	434b      	muls	r3, r1
 800191c:	210a      	movs	r1, #10
 800191e:	fbb3 f3f1 	udiv	r3, r3, r1
 8001922:	4611      	mov	r1, r2
 8001924:	3301      	adds	r3, #1
 8001926:	6950      	ldr	r0, [r2, #20]
 8001928:	0540      	lsls	r0, r0, #21
 800192a:	d500      	bpl.n	800192e <HAL_PWREx_ControlVoltageScaling+0x4e>
 800192c:	b923      	cbnz	r3, 8001938 <HAL_PWREx_ControlVoltageScaling+0x58>
 800192e:	694b      	ldr	r3, [r1, #20]
 8001930:	055b      	lsls	r3, r3, #21
 8001932:	d5e5      	bpl.n	8001900 <HAL_PWREx_ControlVoltageScaling+0x20>
 8001934:	2003      	movs	r0, #3
 8001936:	e7e4      	b.n	8001902 <HAL_PWREx_ControlVoltageScaling+0x22>
 8001938:	3b01      	subs	r3, #1
 800193a:	e7f4      	b.n	8001926 <HAL_PWREx_ControlVoltageScaling+0x46>
 800193c:	2001      	movs	r0, #1
 800193e:	e7e0      	b.n	8001902 <HAL_PWREx_ControlVoltageScaling+0x22>
 8001940:	40007000 	.word	0x40007000
 8001944:	20000000 	.word	0x20000000
 8001948:	000186a0 	.word	0x000186a0

0800194c <RCC_SetFlashLatencyFromMSIRange>:
 800194c:	b537      	push	{r0, r1, r2, r4, r5, lr}
 800194e:	4d1d      	ldr	r5, [pc, #116]	; (80019c4 <RCC_SetFlashLatencyFromMSIRange+0x78>)
 8001950:	4604      	mov	r4, r0
 8001952:	6dab      	ldr	r3, [r5, #88]	; 0x58
 8001954:	00d9      	lsls	r1, r3, #3
 8001956:	d518      	bpl.n	800198a <RCC_SetFlashLatencyFromMSIRange+0x3e>
 8001958:	f7ff ff9a 	bl	8001890 <HAL_PWREx_GetVoltageRange>
 800195c:	f430 7300 	bics.w	r3, r0, #512	; 0x200
 8001960:	d123      	bne.n	80019aa <RCC_SetFlashLatencyFromMSIRange+0x5e>
 8001962:	2c80      	cmp	r4, #128	; 0x80
 8001964:	d903      	bls.n	800196e <RCC_SetFlashLatencyFromMSIRange+0x22>
 8001966:	2ca0      	cmp	r4, #160	; 0xa0
 8001968:	bf8c      	ite	hi
 800196a:	2302      	movhi	r3, #2
 800196c:	2301      	movls	r3, #1
 800196e:	4916      	ldr	r1, [pc, #88]	; (80019c8 <RCC_SetFlashLatencyFromMSIRange+0x7c>)
 8001970:	680a      	ldr	r2, [r1, #0]
 8001972:	f022 020f 	bic.w	r2, r2, #15
 8001976:	431a      	orrs	r2, r3
 8001978:	600a      	str	r2, [r1, #0]
 800197a:	6808      	ldr	r0, [r1, #0]
 800197c:	f000 000f 	and.w	r0, r0, #15
 8001980:	1ac0      	subs	r0, r0, r3
 8001982:	bf18      	it	ne
 8001984:	2001      	movne	r0, #1
 8001986:	b003      	add	sp, #12
 8001988:	bd30      	pop	{r4, r5, pc}
 800198a:	6dab      	ldr	r3, [r5, #88]	; 0x58
 800198c:	f043 5380 	orr.w	r3, r3, #268435456	; 0x10000000
 8001990:	65ab      	str	r3, [r5, #88]	; 0x58
 8001992:	6dab      	ldr	r3, [r5, #88]	; 0x58
 8001994:	f003 5380 	and.w	r3, r3, #268435456	; 0x10000000
 8001998:	9301      	str	r3, [sp, #4]
 800199a:	9b01      	ldr	r3, [sp, #4]
 800199c:	f7ff ff78 	bl	8001890 <HAL_PWREx_GetVoltageRange>
 80019a0:	6dab      	ldr	r3, [r5, #88]	; 0x58
 80019a2:	f023 5380 	bic.w	r3, r3, #268435456	; 0x10000000
 80019a6:	65ab      	str	r3, [r5, #88]	; 0x58
 80019a8:	e7d8      	b.n	800195c <RCC_SetFlashLatencyFromMSIRange+0x10>
 80019aa:	2c80      	cmp	r4, #128	; 0x80
 80019ac:	d805      	bhi.n	80019ba <RCC_SetFlashLatencyFromMSIRange+0x6e>
 80019ae:	d006      	beq.n	80019be <RCC_SetFlashLatencyFromMSIRange+0x72>
 80019b0:	f1a4 0270 	sub.w	r2, r4, #112	; 0x70
 80019b4:	4253      	negs	r3, r2
 80019b6:	4153      	adcs	r3, r2
 80019b8:	e7d9      	b.n	800196e <RCC_SetFlashLatencyFromMSIRange+0x22>
 80019ba:	2303      	movs	r3, #3
 80019bc:	e7d7      	b.n	800196e <RCC_SetFlashLatencyFromMSIRange+0x22>
 80019be:	2302      	movs	r3, #2
 80019c0:	e7d5      	b.n	800196e <RCC_SetFlashLatencyFromMSIRange+0x22>
 80019c2:	bf00      	nop
 80019c4:	40021000 	.word	0x40021000
 80019c8:	40022000 	.word	0x40022000

080019cc <HAL_RCC_GetSysClockFreq>:
 80019cc:	4b25      	ldr	r3, [pc, #148]	; (8001a64 <HAL_RCC_GetSysClockFreq+0x98>)
 80019ce:	689a      	ldr	r2, [r3, #8]
 80019d0:	68d9      	ldr	r1, [r3, #12]
 80019d2:	f012 020c 	ands.w	r2, r2, #12
 80019d6:	d005      	beq.n	80019e4 <HAL_RCC_GetSysClockFreq+0x18>
 80019d8:	2a0c      	cmp	r2, #12
 80019da:	d115      	bne.n	8001a08 <HAL_RCC_GetSysClockFreq+0x3c>
 80019dc:	f001 0103 	and.w	r1, r1, #3
 80019e0:	2901      	cmp	r1, #1
 80019e2:	d118      	bne.n	8001a16 <HAL_RCC_GetSysClockFreq+0x4a>
 80019e4:	6819      	ldr	r1, [r3, #0]
 80019e6:	4820      	ldr	r0, [pc, #128]	; (8001a68 <HAL_RCC_GetSysClockFreq+0x9c>)
 80019e8:	0709      	lsls	r1, r1, #28
 80019ea:	bf55      	itete	pl
 80019ec:	f8d3 1094 	ldrpl.w	r1, [r3, #148]	; 0x94
 80019f0:	6819      	ldrmi	r1, [r3, #0]
 80019f2:	f3c1 2103 	ubfxpl	r1, r1, #8, #4
 80019f6:	f3c1 1103 	ubfxmi	r1, r1, #4, #4
 80019fa:	f850 0021 	ldr.w	r0, [r0, r1, lsl #2]
 80019fe:	b382      	cbz	r2, 8001a62 <HAL_RCC_GetSysClockFreq+0x96>
 8001a00:	2a0c      	cmp	r2, #12
 8001a02:	d009      	beq.n	8001a18 <HAL_RCC_GetSysClockFreq+0x4c>
 8001a04:	2000      	movs	r0, #0
 8001a06:	4770      	bx	lr
 8001a08:	2a04      	cmp	r2, #4
 8001a0a:	d029      	beq.n	8001a60 <HAL_RCC_GetSysClockFreq+0x94>
 8001a0c:	2a08      	cmp	r2, #8
 8001a0e:	4817      	ldr	r0, [pc, #92]	; (8001a6c <HAL_RCC_GetSysClockFreq+0xa0>)
 8001a10:	bf18      	it	ne
 8001a12:	2000      	movne	r0, #0
 8001a14:	4770      	bx	lr
 8001a16:	2000      	movs	r0, #0
 8001a18:	68d9      	ldr	r1, [r3, #12]
 8001a1a:	68da      	ldr	r2, [r3, #12]
 8001a1c:	f001 0103 	and.w	r1, r1, #3
 8001a20:	f3c2 1203 	ubfx	r2, r2, #4, #4
 8001a24:	2902      	cmp	r1, #2
 8001a26:	f102 0201 	add.w	r2, r2, #1
 8001a2a:	d005      	beq.n	8001a38 <HAL_RCC_GetSysClockFreq+0x6c>
 8001a2c:	2903      	cmp	r1, #3
 8001a2e:	d012      	beq.n	8001a56 <HAL_RCC_GetSysClockFreq+0x8a>
 8001a30:	68d9      	ldr	r1, [r3, #12]
 8001a32:	f3c1 2106 	ubfx	r1, r1, #8, #7
 8001a36:	e003      	b.n	8001a40 <HAL_RCC_GetSysClockFreq+0x74>
 8001a38:	68d9      	ldr	r1, [r3, #12]
 8001a3a:	480d      	ldr	r0, [pc, #52]	; (8001a70 <HAL_RCC_GetSysClockFreq+0xa4>)
 8001a3c:	f3c1 2106 	ubfx	r1, r1, #8, #7
 8001a40:	fbb0 f0f2 	udiv	r0, r0, r2
 8001a44:	68db      	ldr	r3, [r3, #12]
 8001a46:	4348      	muls	r0, r1
 8001a48:	f3c3 6341 	ubfx	r3, r3, #25, #2
 8001a4c:	3301      	adds	r3, #1
 8001a4e:	005b      	lsls	r3, r3, #1
 8001a50:	fbb0 f0f3 	udiv	r0, r0, r3
 8001a54:	4770      	bx	lr
 8001a56:	68d9      	ldr	r1, [r3, #12]
 8001a58:	4804      	ldr	r0, [pc, #16]	; (8001a6c <HAL_RCC_GetSysClockFreq+0xa0>)
 8001a5a:	f3c1 2106 	ubfx	r1, r1, #8, #7
 8001a5e:	e7ef      	b.n	8001a40 <HAL_RCC_GetSysClockFreq+0x74>
 8001a60:	4803      	ldr	r0, [pc, #12]	; (8001a70 <HAL_RCC_GetSysClockFreq+0xa4>)
 8001a62:	4770      	bx	lr
 8001a64:	40021000 	.word	0x40021000
 8001a68:	08004790 	.word	0x08004790
 8001a6c:	01e84800 	.word	0x01e84800
 8001a70:	00f42400 	.word	0x00f42400

08001a74 <HAL_RCC_GetHCLKFreq>:
 8001a74:	b508      	push	{r3, lr}
 8001a76:	f7ff ffa9 	bl	80019cc <HAL_RCC_GetSysClockFreq>
 8001a7a:	4b04      	ldr	r3, [pc, #16]	; (8001a8c <HAL_RCC_GetHCLKFreq+0x18>)
 8001a7c:	4a04      	ldr	r2, [pc, #16]	; (8001a90 <HAL_RCC_GetHCLKFreq+0x1c>)
 8001a7e:	689b      	ldr	r3, [r3, #8]
 8001a80:	f3c3 1303 	ubfx	r3, r3, #4, #4
 8001a84:	5cd3      	ldrb	r3, [r2, r3]
 8001a86:	40d8      	lsrs	r0, r3
 8001a88:	bd08      	pop	{r3, pc}
 8001a8a:	bf00      	nop
 8001a8c:	40021000 	.word	0x40021000
 8001a90:	08004780 	.word	0x08004780

08001a94 <HAL_RCC_OscConfig>:
 8001a94:	e92d 41f3 	stmdb	sp!, {r0, r1, r4, r5, r6, r7, r8, lr}
 8001a98:	4605      	mov	r5, r0
 8001a9a:	2800      	cmp	r0, #0
 8001a9c:	d058      	beq.n	8001b50 <HAL_RCC_OscConfig+0xbc>
 8001a9e:	4c9b      	ldr	r4, [pc, #620]	; (8001d0c <HAL_RCC_OscConfig+0x278>)
 8001aa0:	6803      	ldr	r3, [r0, #0]
 8001aa2:	68a6      	ldr	r6, [r4, #8]
 8001aa4:	68e7      	ldr	r7, [r4, #12]
 8001aa6:	06d9      	lsls	r1, r3, #27
 8001aa8:	f006 060c 	and.w	r6, r6, #12
 8001aac:	f007 0703 	and.w	r7, r7, #3
 8001ab0:	d56e      	bpl.n	8001b90 <HAL_RCC_OscConfig+0xfc>
 8001ab2:	b11e      	cbz	r6, 8001abc <HAL_RCC_OscConfig+0x28>
 8001ab4:	2e0c      	cmp	r6, #12
 8001ab6:	d14d      	bne.n	8001b54 <HAL_RCC_OscConfig+0xc0>
 8001ab8:	2f01      	cmp	r7, #1
 8001aba:	d14b      	bne.n	8001b54 <HAL_RCC_OscConfig+0xc0>
 8001abc:	6823      	ldr	r3, [r4, #0]
 8001abe:	079a      	lsls	r2, r3, #30
 8001ac0:	d502      	bpl.n	8001ac8 <HAL_RCC_OscConfig+0x34>
 8001ac2:	69eb      	ldr	r3, [r5, #28]
 8001ac4:	2b00      	cmp	r3, #0
 8001ac6:	d043      	beq.n	8001b50 <HAL_RCC_OscConfig+0xbc>
 8001ac8:	6823      	ldr	r3, [r4, #0]
 8001aca:	6a68      	ldr	r0, [r5, #36]	; 0x24
 8001acc:	071b      	lsls	r3, r3, #28
 8001ace:	bf56      	itet	pl
 8001ad0:	f8d4 3094 	ldrpl.w	r3, [r4, #148]	; 0x94
 8001ad4:	6823      	ldrmi	r3, [r4, #0]
 8001ad6:	091b      	lsrpl	r3, r3, #4
 8001ad8:	f003 03f0 	and.w	r3, r3, #240	; 0xf0
 8001adc:	4298      	cmp	r0, r3
 8001ade:	d921      	bls.n	8001b24 <HAL_RCC_OscConfig+0x90>
 8001ae0:	f7ff ff34 	bl	800194c <RCC_SetFlashLatencyFromMSIRange>
 8001ae4:	2800      	cmp	r0, #0
 8001ae6:	d133      	bne.n	8001b50 <HAL_RCC_OscConfig+0xbc>
 8001ae8:	6823      	ldr	r3, [r4, #0]
 8001aea:	f043 0308 	orr.w	r3, r3, #8
 8001aee:	6023      	str	r3, [r4, #0]
 8001af0:	6823      	ldr	r3, [r4, #0]
 8001af2:	6a6a      	ldr	r2, [r5, #36]	; 0x24
 8001af4:	f023 03f0 	bic.w	r3, r3, #240	; 0xf0
 8001af8:	4313      	orrs	r3, r2
 8001afa:	6023      	str	r3, [r4, #0]
 8001afc:	6863      	ldr	r3, [r4, #4]
 8001afe:	6a2a      	ldr	r2, [r5, #32]
 8001b00:	f423 437f 	bic.w	r3, r3, #65280	; 0xff00
 8001b04:	ea43 2302 	orr.w	r3, r3, r2, lsl #8
 8001b08:	6063      	str	r3, [r4, #4]
 8001b0a:	f7ff ffb3 	bl	8001a74 <HAL_RCC_GetHCLKFreq>
 8001b0e:	4b80      	ldr	r3, [pc, #512]	; (8001d10 <HAL_RCC_OscConfig+0x27c>)
 8001b10:	6018      	str	r0, [r3, #0]
 8001b12:	4b80      	ldr	r3, [pc, #512]	; (8001d14 <HAL_RCC_OscConfig+0x280>)
 8001b14:	6818      	ldr	r0, [r3, #0]
 8001b16:	f7fe fe0b 	bl	8000730 <HAL_InitTick>
 8001b1a:	2800      	cmp	r0, #0
 8001b1c:	d038      	beq.n	8001b90 <HAL_RCC_OscConfig+0xfc>
 8001b1e:	b002      	add	sp, #8
 8001b20:	e8bd 81f0 	ldmia.w	sp!, {r4, r5, r6, r7, r8, pc}
 8001b24:	6823      	ldr	r3, [r4, #0]
 8001b26:	f043 0308 	orr.w	r3, r3, #8
 8001b2a:	6023      	str	r3, [r4, #0]
 8001b2c:	6823      	ldr	r3, [r4, #0]
 8001b2e:	f023 03f0 	bic.w	r3, r3, #240	; 0xf0
 8001b32:	4303      	orrs	r3, r0
 8001b34:	6023      	str	r3, [r4, #0]
 8001b36:	6863      	ldr	r3, [r4, #4]
 8001b38:	6a2a      	ldr	r2, [r5, #32]
 8001b3a:	f423 437f 	bic.w	r3, r3, #65280	; 0xff00
 8001b3e:	ea43 2302 	orr.w	r3, r3, r2, lsl #8
 8001b42:	6063      	str	r3, [r4, #4]
 8001b44:	2e00      	cmp	r6, #0
 8001b46:	d1e0      	bne.n	8001b0a <HAL_RCC_OscConfig+0x76>
 8001b48:	f7ff ff00 	bl	800194c <RCC_SetFlashLatencyFromMSIRange>
 8001b4c:	2800      	cmp	r0, #0
 8001b4e:	d0dc      	beq.n	8001b0a <HAL_RCC_OscConfig+0x76>
 8001b50:	2001      	movs	r0, #1
 8001b52:	e7e4      	b.n	8001b1e <HAL_RCC_OscConfig+0x8a>
 8001b54:	69eb      	ldr	r3, [r5, #28]
 8001b56:	2b00      	cmp	r3, #0
 8001b58:	d03d      	beq.n	8001bd6 <HAL_RCC_OscConfig+0x142>
 8001b5a:	6823      	ldr	r3, [r4, #0]
 8001b5c:	f043 0301 	orr.w	r3, r3, #1
 8001b60:	6023      	str	r3, [r4, #0]
 8001b62:	f7fe fe29 	bl	80007b8 <HAL_GetTick>
 8001b66:	4680      	mov	r8, r0
 8001b68:	6823      	ldr	r3, [r4, #0]
 8001b6a:	079a      	lsls	r2, r3, #30
 8001b6c:	d528      	bpl.n	8001bc0 <HAL_RCC_OscConfig+0x12c>
 8001b6e:	6823      	ldr	r3, [r4, #0]
 8001b70:	f043 0308 	orr.w	r3, r3, #8
 8001b74:	6023      	str	r3, [r4, #0]
 8001b76:	6823      	ldr	r3, [r4, #0]
 8001b78:	6a6a      	ldr	r2, [r5, #36]	; 0x24
 8001b7a:	f023 03f0 	bic.w	r3, r3, #240	; 0xf0
 8001b7e:	4313      	orrs	r3, r2
 8001b80:	6023      	str	r3, [r4, #0]
 8001b82:	6863      	ldr	r3, [r4, #4]
 8001b84:	6a2a      	ldr	r2, [r5, #32]
 8001b86:	f423 437f 	bic.w	r3, r3, #65280	; 0xff00
 8001b8a:	ea43 2302 	orr.w	r3, r3, r2, lsl #8
 8001b8e:	6063      	str	r3, [r4, #4]
 8001b90:	682b      	ldr	r3, [r5, #0]
 8001b92:	07d9      	lsls	r1, r3, #31
 8001b94:	d433      	bmi.n	8001bfe <HAL_RCC_OscConfig+0x16a>
 8001b96:	682b      	ldr	r3, [r5, #0]
 8001b98:	079a      	lsls	r2, r3, #30
 8001b9a:	d477      	bmi.n	8001c8c <HAL_RCC_OscConfig+0x1f8>
 8001b9c:	682b      	ldr	r3, [r5, #0]
 8001b9e:	071e      	lsls	r6, r3, #28
 8001ba0:	f100 80ba 	bmi.w	8001d18 <HAL_RCC_OscConfig+0x284>
 8001ba4:	682b      	ldr	r3, [r5, #0]
 8001ba6:	0758      	lsls	r0, r3, #29
 8001ba8:	f100 80f7 	bmi.w	8001d9a <HAL_RCC_OscConfig+0x306>
 8001bac:	682b      	ldr	r3, [r5, #0]
 8001bae:	069b      	lsls	r3, r3, #26
 8001bb0:	f100 81b8 	bmi.w	8001f24 <HAL_RCC_OscConfig+0x490>
 8001bb4:	6ae8      	ldr	r0, [r5, #44]	; 0x2c
 8001bb6:	2800      	cmp	r0, #0
 8001bb8:	f040 81e8 	bne.w	8001f8c <HAL_RCC_OscConfig+0x4f8>
 8001bbc:	2000      	movs	r0, #0
 8001bbe:	e7ae      	b.n	8001b1e <HAL_RCC_OscConfig+0x8a>
 8001bc0:	f7fe fdfa 	bl	80007b8 <HAL_GetTick>
 8001bc4:	eba0 0008 	sub.w	r0, r0, r8
 8001bc8:	2802      	cmp	r0, #2
 8001bca:	d9cd      	bls.n	8001b68 <HAL_RCC_OscConfig+0xd4>
 8001bcc:	6823      	ldr	r3, [r4, #0]
 8001bce:	0799      	lsls	r1, r3, #30
 8001bd0:	d4ca      	bmi.n	8001b68 <HAL_RCC_OscConfig+0xd4>
 8001bd2:	2003      	movs	r0, #3
 8001bd4:	e7a3      	b.n	8001b1e <HAL_RCC_OscConfig+0x8a>
 8001bd6:	6823      	ldr	r3, [r4, #0]
 8001bd8:	f023 0301 	bic.w	r3, r3, #1
 8001bdc:	6023      	str	r3, [r4, #0]
 8001bde:	f7fe fdeb 	bl	80007b8 <HAL_GetTick>
 8001be2:	4680      	mov	r8, r0
 8001be4:	6823      	ldr	r3, [r4, #0]
 8001be6:	0798      	lsls	r0, r3, #30
 8001be8:	d5d2      	bpl.n	8001b90 <HAL_RCC_OscConfig+0xfc>
 8001bea:	f7fe fde5 	bl	80007b8 <HAL_GetTick>
 8001bee:	eba0 0008 	sub.w	r0, r0, r8
 8001bf2:	2802      	cmp	r0, #2
 8001bf4:	d9f6      	bls.n	8001be4 <HAL_RCC_OscConfig+0x150>
 8001bf6:	6823      	ldr	r3, [r4, #0]
 8001bf8:	079b      	lsls	r3, r3, #30
 8001bfa:	d4ea      	bmi.n	8001bd2 <HAL_RCC_OscConfig+0x13e>
 8001bfc:	e7f2      	b.n	8001be4 <HAL_RCC_OscConfig+0x150>
 8001bfe:	2e08      	cmp	r6, #8
 8001c00:	d003      	beq.n	8001c0a <HAL_RCC_OscConfig+0x176>
 8001c02:	2e0c      	cmp	r6, #12
 8001c04:	d108      	bne.n	8001c18 <HAL_RCC_OscConfig+0x184>
 8001c06:	2f03      	cmp	r7, #3
 8001c08:	d106      	bne.n	8001c18 <HAL_RCC_OscConfig+0x184>
 8001c0a:	6823      	ldr	r3, [r4, #0]
 8001c0c:	039b      	lsls	r3, r3, #14
 8001c0e:	d5c2      	bpl.n	8001b96 <HAL_RCC_OscConfig+0x102>
 8001c10:	686b      	ldr	r3, [r5, #4]
 8001c12:	2b00      	cmp	r3, #0
 8001c14:	d1bf      	bne.n	8001b96 <HAL_RCC_OscConfig+0x102>
 8001c16:	e79b      	b.n	8001b50 <HAL_RCC_OscConfig+0xbc>
 8001c18:	686b      	ldr	r3, [r5, #4]
 8001c1a:	f5b3 3f80 	cmp.w	r3, #65536	; 0x10000
 8001c1e:	d113      	bne.n	8001c48 <HAL_RCC_OscConfig+0x1b4>
 8001c20:	6823      	ldr	r3, [r4, #0]
 8001c22:	f443 3380 	orr.w	r3, r3, #65536	; 0x10000
 8001c26:	6023      	str	r3, [r4, #0]
 8001c28:	f7fe fdc6 	bl	80007b8 <HAL_GetTick>
 8001c2c:	4680      	mov	r8, r0
 8001c2e:	6823      	ldr	r3, [r4, #0]
 8001c30:	0399      	lsls	r1, r3, #14
 8001c32:	d4b0      	bmi.n	8001b96 <HAL_RCC_OscConfig+0x102>
 8001c34:	f7fe fdc0 	bl	80007b8 <HAL_GetTick>
 8001c38:	eba0 0008 	sub.w	r0, r0, r8
 8001c3c:	2864      	cmp	r0, #100	; 0x64
 8001c3e:	d9f6      	bls.n	8001c2e <HAL_RCC_OscConfig+0x19a>
 8001c40:	6823      	ldr	r3, [r4, #0]
 8001c42:	0398      	lsls	r0, r3, #14
 8001c44:	d5c5      	bpl.n	8001bd2 <HAL_RCC_OscConfig+0x13e>
 8001c46:	e7f2      	b.n	8001c2e <HAL_RCC_OscConfig+0x19a>
 8001c48:	f5b3 2fa0 	cmp.w	r3, #327680	; 0x50000
 8001c4c:	d104      	bne.n	8001c58 <HAL_RCC_OscConfig+0x1c4>
 8001c4e:	6823      	ldr	r3, [r4, #0]
 8001c50:	f443 2380 	orr.w	r3, r3, #262144	; 0x40000
 8001c54:	6023      	str	r3, [r4, #0]
 8001c56:	e7e3      	b.n	8001c20 <HAL_RCC_OscConfig+0x18c>
 8001c58:	6822      	ldr	r2, [r4, #0]
 8001c5a:	f422 3280 	bic.w	r2, r2, #65536	; 0x10000
 8001c5e:	6022      	str	r2, [r4, #0]
 8001c60:	6822      	ldr	r2, [r4, #0]
 8001c62:	f422 2280 	bic.w	r2, r2, #262144	; 0x40000
 8001c66:	6022      	str	r2, [r4, #0]
 8001c68:	2b00      	cmp	r3, #0
 8001c6a:	d1dd      	bne.n	8001c28 <HAL_RCC_OscConfig+0x194>
 8001c6c:	f7fe fda4 	bl	80007b8 <HAL_GetTick>
 8001c70:	4680      	mov	r8, r0
 8001c72:	6823      	ldr	r3, [r4, #0]
 8001c74:	039b      	lsls	r3, r3, #14
 8001c76:	d58e      	bpl.n	8001b96 <HAL_RCC_OscConfig+0x102>
 8001c78:	f7fe fd9e 	bl	80007b8 <HAL_GetTick>
 8001c7c:	eba0 0008 	sub.w	r0, r0, r8
 8001c80:	2864      	cmp	r0, #100	; 0x64
 8001c82:	d9f6      	bls.n	8001c72 <HAL_RCC_OscConfig+0x1de>
 8001c84:	6823      	ldr	r3, [r4, #0]
 8001c86:	039a      	lsls	r2, r3, #14
 8001c88:	d4a3      	bmi.n	8001bd2 <HAL_RCC_OscConfig+0x13e>
 8001c8a:	e7f2      	b.n	8001c72 <HAL_RCC_OscConfig+0x1de>
 8001c8c:	2e04      	cmp	r6, #4
 8001c8e:	d003      	beq.n	8001c98 <HAL_RCC_OscConfig+0x204>
 8001c90:	2e0c      	cmp	r6, #12
 8001c92:	d110      	bne.n	8001cb6 <HAL_RCC_OscConfig+0x222>
 8001c94:	2f02      	cmp	r7, #2
 8001c96:	d10e      	bne.n	8001cb6 <HAL_RCC_OscConfig+0x222>
 8001c98:	6823      	ldr	r3, [r4, #0]
 8001c9a:	0558      	lsls	r0, r3, #21
 8001c9c:	d503      	bpl.n	8001ca6 <HAL_RCC_OscConfig+0x212>
 8001c9e:	68eb      	ldr	r3, [r5, #12]
 8001ca0:	2b00      	cmp	r3, #0
 8001ca2:	f43f af55 	beq.w	8001b50 <HAL_RCC_OscConfig+0xbc>
 8001ca6:	6863      	ldr	r3, [r4, #4]
 8001ca8:	692a      	ldr	r2, [r5, #16]
 8001caa:	f023 43fe 	bic.w	r3, r3, #2130706432	; 0x7f000000
 8001cae:	ea43 6302 	orr.w	r3, r3, r2, lsl #24
 8001cb2:	6063      	str	r3, [r4, #4]
 8001cb4:	e772      	b.n	8001b9c <HAL_RCC_OscConfig+0x108>
 8001cb6:	68eb      	ldr	r3, [r5, #12]
 8001cb8:	b19b      	cbz	r3, 8001ce2 <HAL_RCC_OscConfig+0x24e>
 8001cba:	6823      	ldr	r3, [r4, #0]
 8001cbc:	f443 7380 	orr.w	r3, r3, #256	; 0x100
 8001cc0:	6023      	str	r3, [r4, #0]
 8001cc2:	f7fe fd79 	bl	80007b8 <HAL_GetTick>
 8001cc6:	4606      	mov	r6, r0
 8001cc8:	6823      	ldr	r3, [r4, #0]
 8001cca:	055a      	lsls	r2, r3, #21
 8001ccc:	d4eb      	bmi.n	8001ca6 <HAL_RCC_OscConfig+0x212>
 8001cce:	f7fe fd73 	bl	80007b8 <HAL_GetTick>
 8001cd2:	1b80      	subs	r0, r0, r6
 8001cd4:	2802      	cmp	r0, #2
 8001cd6:	d9f7      	bls.n	8001cc8 <HAL_RCC_OscConfig+0x234>
 8001cd8:	6823      	ldr	r3, [r4, #0]
 8001cda:	0559      	lsls	r1, r3, #21
 8001cdc:	f57f af79 	bpl.w	8001bd2 <HAL_RCC_OscConfig+0x13e>
 8001ce0:	e7f2      	b.n	8001cc8 <HAL_RCC_OscConfig+0x234>
 8001ce2:	6823      	ldr	r3, [r4, #0]
 8001ce4:	f423 7380 	bic.w	r3, r3, #256	; 0x100
 8001ce8:	6023      	str	r3, [r4, #0]
 8001cea:	f7fe fd65 	bl	80007b8 <HAL_GetTick>
 8001cee:	4606      	mov	r6, r0
 8001cf0:	6823      	ldr	r3, [r4, #0]
 8001cf2:	055f      	lsls	r7, r3, #21
 8001cf4:	f57f af52 	bpl.w	8001b9c <HAL_RCC_OscConfig+0x108>
 8001cf8:	f7fe fd5e 	bl	80007b8 <HAL_GetTick>
 8001cfc:	1b80      	subs	r0, r0, r6
 8001cfe:	2802      	cmp	r0, #2
 8001d00:	d9f6      	bls.n	8001cf0 <HAL_RCC_OscConfig+0x25c>
 8001d02:	6823      	ldr	r3, [r4, #0]
 8001d04:	055b      	lsls	r3, r3, #21
 8001d06:	f53f af64 	bmi.w	8001bd2 <HAL_RCC_OscConfig+0x13e>
 8001d0a:	e7f1      	b.n	8001cf0 <HAL_RCC_OscConfig+0x25c>
 8001d0c:	40021000 	.word	0x40021000
 8001d10:	20000000 	.word	0x20000000
 8001d14:	20000008 	.word	0x20000008
 8001d18:	696b      	ldr	r3, [r5, #20]
 8001d1a:	b32b      	cbz	r3, 8001d68 <HAL_RCC_OscConfig+0x2d4>
 8001d1c:	69ab      	ldr	r3, [r5, #24]
 8001d1e:	b9f3      	cbnz	r3, 8001d5e <HAL_RCC_OscConfig+0x2ca>
 8001d20:	f8d4 3094 	ldr.w	r3, [r4, #148]	; 0x94
 8001d24:	f023 0310 	bic.w	r3, r3, #16
 8001d28:	f8c4 3094 	str.w	r3, [r4, #148]	; 0x94
 8001d2c:	f8d4 3094 	ldr.w	r3, [r4, #148]	; 0x94
 8001d30:	f043 0301 	orr.w	r3, r3, #1
 8001d34:	f8c4 3094 	str.w	r3, [r4, #148]	; 0x94
 8001d38:	f7fe fd3e 	bl	80007b8 <HAL_GetTick>
 8001d3c:	4606      	mov	r6, r0
 8001d3e:	f8d4 3094 	ldr.w	r3, [r4, #148]	; 0x94
 8001d42:	079a      	lsls	r2, r3, #30
 8001d44:	f53f af2e 	bmi.w	8001ba4 <HAL_RCC_OscConfig+0x110>
 8001d48:	f7fe fd36 	bl	80007b8 <HAL_GetTick>
 8001d4c:	1b80      	subs	r0, r0, r6
 8001d4e:	2807      	cmp	r0, #7
 8001d50:	d9f5      	bls.n	8001d3e <HAL_RCC_OscConfig+0x2aa>
 8001d52:	f8d4 3094 	ldr.w	r3, [r4, #148]	; 0x94
 8001d56:	0799      	lsls	r1, r3, #30
 8001d58:	f57f af3b 	bpl.w	8001bd2 <HAL_RCC_OscConfig+0x13e>
 8001d5c:	e7ef      	b.n	8001d3e <HAL_RCC_OscConfig+0x2aa>
 8001d5e:	f8d4 3094 	ldr.w	r3, [r4, #148]	; 0x94
 8001d62:	f043 0310 	orr.w	r3, r3, #16
 8001d66:	e7df      	b.n	8001d28 <HAL_RCC_OscConfig+0x294>
 8001d68:	f8d4 3094 	ldr.w	r3, [r4, #148]	; 0x94
 8001d6c:	f023 0301 	bic.w	r3, r3, #1
 8001d70:	f8c4 3094 	str.w	r3, [r4, #148]	; 0x94
 8001d74:	f7fe fd20 	bl	80007b8 <HAL_GetTick>
 8001d78:	4606      	mov	r6, r0
 8001d7a:	f8d4 3094 	ldr.w	r3, [r4, #148]	; 0x94
 8001d7e:	079f      	lsls	r7, r3, #30
 8001d80:	f57f af10 	bpl.w	8001ba4 <HAL_RCC_OscConfig+0x110>
 8001d84:	f7fe fd18 	bl	80007b8 <HAL_GetTick>
 8001d88:	1b80      	subs	r0, r0, r6
 8001d8a:	2807      	cmp	r0, #7
 8001d8c:	d9f5      	bls.n	8001d7a <HAL_RCC_OscConfig+0x2e6>
 8001d8e:	f8d4 3094 	ldr.w	r3, [r4, #148]	; 0x94
 8001d92:	079b      	lsls	r3, r3, #30
 8001d94:	f53f af1d 	bmi.w	8001bd2 <HAL_RCC_OscConfig+0x13e>
 8001d98:	e7ef      	b.n	8001d7a <HAL_RCC_OscConfig+0x2e6>
 8001d9a:	6da3      	ldr	r3, [r4, #88]	; 0x58
 8001d9c:	00de      	lsls	r6, r3, #3
 8001d9e:	d443      	bmi.n	8001e28 <HAL_RCC_OscConfig+0x394>
 8001da0:	2701      	movs	r7, #1
 8001da2:	6da3      	ldr	r3, [r4, #88]	; 0x58
 8001da4:	f043 5380 	orr.w	r3, r3, #268435456	; 0x10000000
 8001da8:	65a3      	str	r3, [r4, #88]	; 0x58
 8001daa:	6da3      	ldr	r3, [r4, #88]	; 0x58
 8001dac:	f003 5380 	and.w	r3, r3, #268435456	; 0x10000000
 8001db0:	9301      	str	r3, [sp, #4]
 8001db2:	9b01      	ldr	r3, [sp, #4]
 8001db4:	4eac      	ldr	r6, [pc, #688]	; (8002068 <HAL_RCC_OscConfig+0x5d4>)
 8001db6:	6833      	ldr	r3, [r6, #0]
 8001db8:	05d8      	lsls	r0, r3, #23
 8001dba:	d537      	bpl.n	8001e2c <HAL_RCC_OscConfig+0x398>
 8001dbc:	68ab      	ldr	r3, [r5, #8]
 8001dbe:	07d9      	lsls	r1, r3, #31
 8001dc0:	d449      	bmi.n	8001e56 <HAL_RCC_OscConfig+0x3c2>
 8001dc2:	f8d4 2090 	ldr.w	r2, [r4, #144]	; 0x90
 8001dc6:	f022 0201 	bic.w	r2, r2, #1
 8001dca:	f8c4 2090 	str.w	r2, [r4, #144]	; 0x90
 8001dce:	f8d4 2090 	ldr.w	r2, [r4, #144]	; 0x90
 8001dd2:	f022 0204 	bic.w	r2, r2, #4
 8001dd6:	f8c4 2090 	str.w	r2, [r4, #144]	; 0x90
 8001dda:	2b00      	cmp	r3, #0
 8001ddc:	d14a      	bne.n	8001e74 <HAL_RCC_OscConfig+0x3e0>
 8001dde:	f7fe fceb 	bl	80007b8 <HAL_GetTick>
 8001de2:	f241 3888 	movw	r8, #5000	; 0x1388
 8001de6:	4606      	mov	r6, r0
 8001de8:	f8d4 3090 	ldr.w	r3, [r4, #144]	; 0x90
 8001dec:	079b      	lsls	r3, r3, #30
 8001dee:	f100 808d 	bmi.w	8001f0c <HAL_RCC_OscConfig+0x478>
 8001df2:	f8d4 3090 	ldr.w	r3, [r4, #144]	; 0x90
 8001df6:	0618      	lsls	r0, r3, #24
 8001df8:	d555      	bpl.n	8001ea6 <HAL_RCC_OscConfig+0x412>
 8001dfa:	f241 3888 	movw	r8, #5000	; 0x1388
 8001dfe:	f8d4 3090 	ldr.w	r3, [r4, #144]	; 0x90
 8001e02:	f023 0380 	bic.w	r3, r3, #128	; 0x80
 8001e06:	f8c4 3090 	str.w	r3, [r4, #144]	; 0x90
 8001e0a:	f8d4 3090 	ldr.w	r3, [r4, #144]	; 0x90
 8001e0e:	051a      	lsls	r2, r3, #20
 8001e10:	d549      	bpl.n	8001ea6 <HAL_RCC_OscConfig+0x412>
 8001e12:	f7fe fcd1 	bl	80007b8 <HAL_GetTick>
 8001e16:	1b80      	subs	r0, r0, r6
 8001e18:	4540      	cmp	r0, r8
 8001e1a:	d9f6      	bls.n	8001e0a <HAL_RCC_OscConfig+0x376>
 8001e1c:	f8d4 3090 	ldr.w	r3, [r4, #144]	; 0x90
 8001e20:	0519      	lsls	r1, r3, #20
 8001e22:	f53f aed6 	bmi.w	8001bd2 <HAL_RCC_OscConfig+0x13e>
 8001e26:	e7f0      	b.n	8001e0a <HAL_RCC_OscConfig+0x376>
 8001e28:	2700      	movs	r7, #0
 8001e2a:	e7c3      	b.n	8001db4 <HAL_RCC_OscConfig+0x320>
 8001e2c:	6833      	ldr	r3, [r6, #0]
 8001e2e:	f443 7380 	orr.w	r3, r3, #256	; 0x100
 8001e32:	6033      	str	r3, [r6, #0]
 8001e34:	f7fe fcc0 	bl	80007b8 <HAL_GetTick>
 8001e38:	4680      	mov	r8, r0
 8001e3a:	6833      	ldr	r3, [r6, #0]
 8001e3c:	05db      	lsls	r3, r3, #23
 8001e3e:	d4bd      	bmi.n	8001dbc <HAL_RCC_OscConfig+0x328>
 8001e40:	f7fe fcba 	bl	80007b8 <HAL_GetTick>
 8001e44:	eba0 0008 	sub.w	r0, r0, r8
 8001e48:	2802      	cmp	r0, #2
 8001e4a:	d9f6      	bls.n	8001e3a <HAL_RCC_OscConfig+0x3a6>
 8001e4c:	6833      	ldr	r3, [r6, #0]
 8001e4e:	05da      	lsls	r2, r3, #23
 8001e50:	f57f aebf 	bpl.w	8001bd2 <HAL_RCC_OscConfig+0x13e>
 8001e54:	e7f1      	b.n	8001e3a <HAL_RCC_OscConfig+0x3a6>
 8001e56:	f013 0f04 	tst.w	r3, #4
 8001e5a:	f8d4 3090 	ldr.w	r3, [r4, #144]	; 0x90
 8001e5e:	bf1e      	ittt	ne
 8001e60:	f043 0304 	orrne.w	r3, r3, #4
 8001e64:	f8c4 3090 	strne.w	r3, [r4, #144]	; 0x90
 8001e68:	f8d4 3090 	ldrne.w	r3, [r4, #144]	; 0x90
 8001e6c:	f043 0301 	orr.w	r3, r3, #1
 8001e70:	f8c4 3090 	str.w	r3, [r4, #144]	; 0x90
 8001e74:	f7fe fca0 	bl	80007b8 <HAL_GetTick>
 8001e78:	f241 3888 	movw	r8, #5000	; 0x1388
 8001e7c:	4606      	mov	r6, r0
 8001e7e:	f8d4 3090 	ldr.w	r3, [r4, #144]	; 0x90
 8001e82:	0799      	lsls	r1, r3, #30
 8001e84:	d517      	bpl.n	8001eb6 <HAL_RCC_OscConfig+0x422>
 8001e86:	68ab      	ldr	r3, [r5, #8]
 8001e88:	f013 0f80 	tst.w	r3, #128	; 0x80
 8001e8c:	f8d4 3090 	ldr.w	r3, [r4, #144]	; 0x90
 8001e90:	d027      	beq.n	8001ee2 <HAL_RCC_OscConfig+0x44e>
 8001e92:	f241 3888 	movw	r8, #5000	; 0x1388
 8001e96:	f043 0380 	orr.w	r3, r3, #128	; 0x80
 8001e9a:	f8c4 3090 	str.w	r3, [r4, #144]	; 0x90
 8001e9e:	f8d4 3090 	ldr.w	r3, [r4, #144]	; 0x90
 8001ea2:	051b      	lsls	r3, r3, #20
 8001ea4:	d512      	bpl.n	8001ecc <HAL_RCC_OscConfig+0x438>
 8001ea6:	2f00      	cmp	r7, #0
 8001ea8:	f43f ae80 	beq.w	8001bac <HAL_RCC_OscConfig+0x118>
 8001eac:	6da3      	ldr	r3, [r4, #88]	; 0x58
 8001eae:	f023 5380 	bic.w	r3, r3, #268435456	; 0x10000000
 8001eb2:	65a3      	str	r3, [r4, #88]	; 0x58
 8001eb4:	e67a      	b.n	8001bac <HAL_RCC_OscConfig+0x118>
 8001eb6:	f7fe fc7f 	bl	80007b8 <HAL_GetTick>
 8001eba:	1b80      	subs	r0, r0, r6
 8001ebc:	4540      	cmp	r0, r8
 8001ebe:	d9de      	bls.n	8001e7e <HAL_RCC_OscConfig+0x3ea>
 8001ec0:	f8d4 3090 	ldr.w	r3, [r4, #144]	; 0x90
 8001ec4:	0798      	lsls	r0, r3, #30
 8001ec6:	f57f ae84 	bpl.w	8001bd2 <HAL_RCC_OscConfig+0x13e>
 8001eca:	e7d8      	b.n	8001e7e <HAL_RCC_OscConfig+0x3ea>
 8001ecc:	f7fe fc74 	bl	80007b8 <HAL_GetTick>
 8001ed0:	1b80      	subs	r0, r0, r6
 8001ed2:	4540      	cmp	r0, r8
 8001ed4:	d9e3      	bls.n	8001e9e <HAL_RCC_OscConfig+0x40a>
 8001ed6:	f8d4 3090 	ldr.w	r3, [r4, #144]	; 0x90
 8001eda:	051a      	lsls	r2, r3, #20
 8001edc:	f57f ae79 	bpl.w	8001bd2 <HAL_RCC_OscConfig+0x13e>
 8001ee0:	e7dd      	b.n	8001e9e <HAL_RCC_OscConfig+0x40a>
 8001ee2:	f241 3888 	movw	r8, #5000	; 0x1388
 8001ee6:	f023 0380 	bic.w	r3, r3, #128	; 0x80
 8001eea:	f8c4 3090 	str.w	r3, [r4, #144]	; 0x90
 8001eee:	f8d4 3090 	ldr.w	r3, [r4, #144]	; 0x90
 8001ef2:	0519      	lsls	r1, r3, #20
 8001ef4:	d5d7      	bpl.n	8001ea6 <HAL_RCC_OscConfig+0x412>
 8001ef6:	f7fe fc5f 	bl	80007b8 <HAL_GetTick>
 8001efa:	1b80      	subs	r0, r0, r6
 8001efc:	4540      	cmp	r0, r8
 8001efe:	d9f6      	bls.n	8001eee <HAL_RCC_OscConfig+0x45a>
 8001f00:	f8d4 3090 	ldr.w	r3, [r4, #144]	; 0x90
 8001f04:	0518      	lsls	r0, r3, #20
 8001f06:	f53f ae64 	bmi.w	8001bd2 <HAL_RCC_OscConfig+0x13e>
 8001f0a:	e7f0      	b.n	8001eee <HAL_RCC_OscConfig+0x45a>
 8001f0c:	f7fe fc54 	bl	80007b8 <HAL_GetTick>
 8001f10:	1b80      	subs	r0, r0, r6
 8001f12:	4540      	cmp	r0, r8
 8001f14:	f67f af68 	bls.w	8001de8 <HAL_RCC_OscConfig+0x354>
 8001f18:	f8d4 3090 	ldr.w	r3, [r4, #144]	; 0x90
 8001f1c:	079a      	lsls	r2, r3, #30
 8001f1e:	f53f ae58 	bmi.w	8001bd2 <HAL_RCC_OscConfig+0x13e>
 8001f22:	e761      	b.n	8001de8 <HAL_RCC_OscConfig+0x354>
 8001f24:	6aab      	ldr	r3, [r5, #40]	; 0x28
 8001f26:	b1c3      	cbz	r3, 8001f5a <HAL_RCC_OscConfig+0x4c6>
 8001f28:	f8d4 3098 	ldr.w	r3, [r4, #152]	; 0x98
 8001f2c:	f043 0301 	orr.w	r3, r3, #1
 8001f30:	f8c4 3098 	str.w	r3, [r4, #152]	; 0x98
 8001f34:	f7fe fc40 	bl	80007b8 <HAL_GetTick>
 8001f38:	4606      	mov	r6, r0
 8001f3a:	f8d4 3098 	ldr.w	r3, [r4, #152]	; 0x98
 8001f3e:	0798      	lsls	r0, r3, #30
 8001f40:	f53f ae38 	bmi.w	8001bb4 <HAL_RCC_OscConfig+0x120>
 8001f44:	f7fe fc38 	bl	80007b8 <HAL_GetTick>
 8001f48:	1b80      	subs	r0, r0, r6
 8001f4a:	2802      	cmp	r0, #2
 8001f4c:	d9f5      	bls.n	8001f3a <HAL_RCC_OscConfig+0x4a6>
 8001f4e:	f8d4 3098 	ldr.w	r3, [r4, #152]	; 0x98
 8001f52:	079f      	lsls	r7, r3, #30
 8001f54:	f57f ae3d 	bpl.w	8001bd2 <HAL_RCC_OscConfig+0x13e>
 8001f58:	e7ef      	b.n	8001f3a <HAL_RCC_OscConfig+0x4a6>
 8001f5a:	f8d4 3098 	ldr.w	r3, [r4, #152]	; 0x98
 8001f5e:	f023 0301 	bic.w	r3, r3, #1
 8001f62:	f8c4 3098 	str.w	r3, [r4, #152]	; 0x98
 8001f66:	f7fe fc27 	bl	80007b8 <HAL_GetTick>
 8001f6a:	4606      	mov	r6, r0
 8001f6c:	f8d4 3098 	ldr.w	r3, [r4, #152]	; 0x98
 8001f70:	079a      	lsls	r2, r3, #30
 8001f72:	f57f ae1f 	bpl.w	8001bb4 <HAL_RCC_OscConfig+0x120>
 8001f76:	f7fe fc1f 	bl	80007b8 <HAL_GetTick>
 8001f7a:	1b80      	subs	r0, r0, r6
 8001f7c:	2802      	cmp	r0, #2
 8001f7e:	d9f5      	bls.n	8001f6c <HAL_RCC_OscConfig+0x4d8>
 8001f80:	f8d4 3098 	ldr.w	r3, [r4, #152]	; 0x98
 8001f84:	0799      	lsls	r1, r3, #30
 8001f86:	f53f ae24 	bmi.w	8001bd2 <HAL_RCC_OscConfig+0x13e>
 8001f8a:	e7ef      	b.n	8001f6c <HAL_RCC_OscConfig+0x4d8>
 8001f8c:	68a3      	ldr	r3, [r4, #8]
 8001f8e:	f003 030c 	and.w	r3, r3, #12
 8001f92:	2b0c      	cmp	r3, #12
 8001f94:	d06c      	beq.n	8002070 <HAL_RCC_OscConfig+0x5dc>
 8001f96:	6823      	ldr	r3, [r4, #0]
 8001f98:	2802      	cmp	r0, #2
 8001f9a:	f023 7380 	bic.w	r3, r3, #16777216	; 0x1000000
 8001f9e:	6023      	str	r3, [r4, #0]
 8001fa0:	d142      	bne.n	8002028 <HAL_RCC_OscConfig+0x594>
 8001fa2:	f7fe fc09 	bl	80007b8 <HAL_GetTick>
 8001fa6:	4606      	mov	r6, r0
 8001fa8:	6823      	ldr	r3, [r4, #0]
 8001faa:	019f      	lsls	r7, r3, #6
 8001fac:	d432      	bmi.n	8002014 <HAL_RCC_OscConfig+0x580>
 8001fae:	68e2      	ldr	r2, [r4, #12]
 8001fb0:	4b2e      	ldr	r3, [pc, #184]	; (800206c <HAL_RCC_OscConfig+0x5d8>)
 8001fb2:	4013      	ands	r3, r2
 8001fb4:	6b2a      	ldr	r2, [r5, #48]	; 0x30
 8001fb6:	4313      	orrs	r3, r2
 8001fb8:	6baa      	ldr	r2, [r5, #56]	; 0x38
 8001fba:	ea43 2302 	orr.w	r3, r3, r2, lsl #8
 8001fbe:	6bea      	ldr	r2, [r5, #60]	; 0x3c
 8001fc0:	ea43 63c2 	orr.w	r3, r3, r2, lsl #27
 8001fc4:	6b6a      	ldr	r2, [r5, #52]	; 0x34
 8001fc6:	3a01      	subs	r2, #1
 8001fc8:	ea43 1302 	orr.w	r3, r3, r2, lsl #4
 8001fcc:	6c2a      	ldr	r2, [r5, #64]	; 0x40
 8001fce:	0852      	lsrs	r2, r2, #1
 8001fd0:	3a01      	subs	r2, #1
 8001fd2:	ea43 5342 	orr.w	r3, r3, r2, lsl #21
 8001fd6:	6c6a      	ldr	r2, [r5, #68]	; 0x44
 8001fd8:	0852      	lsrs	r2, r2, #1
 8001fda:	3a01      	subs	r2, #1
 8001fdc:	ea43 6342 	orr.w	r3, r3, r2, lsl #25
 8001fe0:	60e3      	str	r3, [r4, #12]
 8001fe2:	6823      	ldr	r3, [r4, #0]
 8001fe4:	f043 7380 	orr.w	r3, r3, #16777216	; 0x1000000
 8001fe8:	6023      	str	r3, [r4, #0]
 8001fea:	68e3      	ldr	r3, [r4, #12]
 8001fec:	f043 7380 	orr.w	r3, r3, #16777216	; 0x1000000
 8001ff0:	60e3      	str	r3, [r4, #12]
 8001ff2:	f7fe fbe1 	bl	80007b8 <HAL_GetTick>
 8001ff6:	4605      	mov	r5, r0
 8001ff8:	6823      	ldr	r3, [r4, #0]
 8001ffa:	0199      	lsls	r1, r3, #6
 8001ffc:	f53f adde 	bmi.w	8001bbc <HAL_RCC_OscConfig+0x128>
 8002000:	f7fe fbda 	bl	80007b8 <HAL_GetTick>
 8002004:	1b40      	subs	r0, r0, r5
 8002006:	2802      	cmp	r0, #2
 8002008:	d9f6      	bls.n	8001ff8 <HAL_RCC_OscConfig+0x564>
 800200a:	6823      	ldr	r3, [r4, #0]
 800200c:	0198      	lsls	r0, r3, #6
 800200e:	f57f ade0 	bpl.w	8001bd2 <HAL_RCC_OscConfig+0x13e>
 8002012:	e7f1      	b.n	8001ff8 <HAL_RCC_OscConfig+0x564>
 8002014:	f7fe fbd0 	bl	80007b8 <HAL_GetTick>
 8002018:	1b80      	subs	r0, r0, r6
 800201a:	2802      	cmp	r0, #2
 800201c:	d9c4      	bls.n	8001fa8 <HAL_RCC_OscConfig+0x514>
 800201e:	6823      	ldr	r3, [r4, #0]
 8002020:	019b      	lsls	r3, r3, #6
 8002022:	f53f add6 	bmi.w	8001bd2 <HAL_RCC_OscConfig+0x13e>
 8002026:	e7bf      	b.n	8001fa8 <HAL_RCC_OscConfig+0x514>
 8002028:	6823      	ldr	r3, [r4, #0]
 800202a:	f013 5f20 	tst.w	r3, #671088640	; 0x28000000
 800202e:	bf02      	ittt	eq
 8002030:	68e3      	ldreq	r3, [r4, #12]
 8002032:	f023 0303 	biceq.w	r3, r3, #3
 8002036:	60e3      	streq	r3, [r4, #12]
 8002038:	68e3      	ldr	r3, [r4, #12]
 800203a:	f023 7388 	bic.w	r3, r3, #17825792	; 0x1100000
 800203e:	f423 3380 	bic.w	r3, r3, #65536	; 0x10000
 8002042:	60e3      	str	r3, [r4, #12]
 8002044:	f7fe fbb8 	bl	80007b8 <HAL_GetTick>
 8002048:	4605      	mov	r5, r0
 800204a:	6823      	ldr	r3, [r4, #0]
 800204c:	019b      	lsls	r3, r3, #6
 800204e:	f57f adb5 	bpl.w	8001bbc <HAL_RCC_OscConfig+0x128>
 8002052:	f7fe fbb1 	bl	80007b8 <HAL_GetTick>
 8002056:	1b40      	subs	r0, r0, r5
 8002058:	2802      	cmp	r0, #2
 800205a:	d9f6      	bls.n	800204a <HAL_RCC_OscConfig+0x5b6>
 800205c:	6823      	ldr	r3, [r4, #0]
 800205e:	019a      	lsls	r2, r3, #6
 8002060:	f53f adb7 	bmi.w	8001bd2 <HAL_RCC_OscConfig+0x13e>
 8002064:	e7f1      	b.n	800204a <HAL_RCC_OscConfig+0x5b6>
 8002066:	bf00      	nop
 8002068:	40007000 	.word	0x40007000
 800206c:	019f800c 	.word	0x019f800c
 8002070:	2801      	cmp	r0, #1
 8002072:	f43f ad54 	beq.w	8001b1e <HAL_RCC_OscConfig+0x8a>
 8002076:	68e3      	ldr	r3, [r4, #12]
 8002078:	6b2a      	ldr	r2, [r5, #48]	; 0x30
 800207a:	f003 0103 	and.w	r1, r3, #3
 800207e:	4291      	cmp	r1, r2
 8002080:	f47f ad66 	bne.w	8001b50 <HAL_RCC_OscConfig+0xbc>
 8002084:	6b69      	ldr	r1, [r5, #52]	; 0x34
 8002086:	f003 02f0 	and.w	r2, r3, #240	; 0xf0
 800208a:	3901      	subs	r1, #1
 800208c:	ebb2 1f01 	cmp.w	r2, r1, lsl #4
 8002090:	f47f ad5e 	bne.w	8001b50 <HAL_RCC_OscConfig+0xbc>
 8002094:	6ba9      	ldr	r1, [r5, #56]	; 0x38
 8002096:	f403 42fe 	and.w	r2, r3, #32512	; 0x7f00
 800209a:	ebb2 2f01 	cmp.w	r2, r1, lsl #8
 800209e:	f47f ad57 	bne.w	8001b50 <HAL_RCC_OscConfig+0xbc>
 80020a2:	6be9      	ldr	r1, [r5, #60]	; 0x3c
 80020a4:	f003 4278 	and.w	r2, r3, #4160749568	; 0xf8000000
 80020a8:	ebb2 6fc1 	cmp.w	r2, r1, lsl #27
 80020ac:	f47f ad50 	bne.w	8001b50 <HAL_RCC_OscConfig+0xbc>
 80020b0:	6c2a      	ldr	r2, [r5, #64]	; 0x40
 80020b2:	f403 01c0 	and.w	r1, r3, #6291456	; 0x600000
 80020b6:	0852      	lsrs	r2, r2, #1
 80020b8:	3a01      	subs	r2, #1
 80020ba:	ebb1 5f42 	cmp.w	r1, r2, lsl #21
 80020be:	f47f ad47 	bne.w	8001b50 <HAL_RCC_OscConfig+0xbc>
 80020c2:	6c6a      	ldr	r2, [r5, #68]	; 0x44
 80020c4:	f003 63c0 	and.w	r3, r3, #100663296	; 0x6000000
 80020c8:	0852      	lsrs	r2, r2, #1
 80020ca:	3a01      	subs	r2, #1
 80020cc:	ebb3 6f42 	cmp.w	r3, r2, lsl #25
 80020d0:	f43f ad74 	beq.w	8001bbc <HAL_RCC_OscConfig+0x128>
 80020d4:	e53c      	b.n	8001b50 <HAL_RCC_OscConfig+0xbc>
 80020d6:	bf00      	nop

080020d8 <HAL_RCC_ClockConfig>:
 80020d8:	e92d 43f8 	stmdb	sp!, {r3, r4, r5, r6, r7, r8, r9, lr}
 80020dc:	460e      	mov	r6, r1
 80020de:	4605      	mov	r5, r0
 80020e0:	b910      	cbnz	r0, 80020e8 <HAL_RCC_ClockConfig+0x10>
 80020e2:	2001      	movs	r0, #1
 80020e4:	e8bd 83f8 	ldmia.w	sp!, {r3, r4, r5, r6, r7, r8, r9, pc}
 80020e8:	4a74      	ldr	r2, [pc, #464]	; (80022bc <HAL_RCC_ClockConfig+0x1e4>)
 80020ea:	6813      	ldr	r3, [r2, #0]
 80020ec:	f003 030f 	and.w	r3, r3, #15
 80020f0:	428b      	cmp	r3, r1
 80020f2:	d32c      	bcc.n	800214e <HAL_RCC_ClockConfig+0x76>
 80020f4:	6829      	ldr	r1, [r5, #0]
 80020f6:	f011 0701 	ands.w	r7, r1, #1
 80020fa:	d133      	bne.n	8002164 <HAL_RCC_ClockConfig+0x8c>
 80020fc:	6829      	ldr	r1, [r5, #0]
 80020fe:	0788      	lsls	r0, r1, #30
 8002100:	f140 80bf 	bpl.w	8002282 <HAL_RCC_ClockConfig+0x1aa>
 8002104:	4a6e      	ldr	r2, [pc, #440]	; (80022c0 <HAL_RCC_ClockConfig+0x1e8>)
 8002106:	68a8      	ldr	r0, [r5, #8]
 8002108:	6893      	ldr	r3, [r2, #8]
 800210a:	f023 03f0 	bic.w	r3, r3, #240	; 0xf0
 800210e:	4303      	orrs	r3, r0
 8002110:	6093      	str	r3, [r2, #8]
 8002112:	4a6a      	ldr	r2, [pc, #424]	; (80022bc <HAL_RCC_ClockConfig+0x1e4>)
 8002114:	6813      	ldr	r3, [r2, #0]
 8002116:	f003 030f 	and.w	r3, r3, #15
 800211a:	42b3      	cmp	r3, r6
 800211c:	f200 80b9 	bhi.w	8002292 <HAL_RCC_ClockConfig+0x1ba>
 8002120:	074a      	lsls	r2, r1, #29
 8002122:	f100 80c2 	bmi.w	80022aa <HAL_RCC_ClockConfig+0x1d2>
 8002126:	070b      	lsls	r3, r1, #28
 8002128:	d507      	bpl.n	800213a <HAL_RCC_ClockConfig+0x62>
 800212a:	4a65      	ldr	r2, [pc, #404]	; (80022c0 <HAL_RCC_ClockConfig+0x1e8>)
 800212c:	6929      	ldr	r1, [r5, #16]
 800212e:	6893      	ldr	r3, [r2, #8]
 8002130:	f423 5360 	bic.w	r3, r3, #14336	; 0x3800
 8002134:	ea43 03c1 	orr.w	r3, r3, r1, lsl #3
 8002138:	6093      	str	r3, [r2, #8]
 800213a:	f7ff fc9b 	bl	8001a74 <HAL_RCC_GetHCLKFreq>
 800213e:	4b61      	ldr	r3, [pc, #388]	; (80022c4 <HAL_RCC_ClockConfig+0x1ec>)
 8002140:	6018      	str	r0, [r3, #0]
 8002142:	4b61      	ldr	r3, [pc, #388]	; (80022c8 <HAL_RCC_ClockConfig+0x1f0>)
 8002144:	6818      	ldr	r0, [r3, #0]
 8002146:	e8bd 43f8 	ldmia.w	sp!, {r3, r4, r5, r6, r7, r8, r9, lr}
 800214a:	f7fe baf1 	b.w	8000730 <HAL_InitTick>
 800214e:	6813      	ldr	r3, [r2, #0]
 8002150:	f023 030f 	bic.w	r3, r3, #15
 8002154:	430b      	orrs	r3, r1
 8002156:	6013      	str	r3, [r2, #0]
 8002158:	6813      	ldr	r3, [r2, #0]
 800215a:	f003 030f 	and.w	r3, r3, #15
 800215e:	428b      	cmp	r3, r1
 8002160:	d1bf      	bne.n	80020e2 <HAL_RCC_ClockConfig+0xa>
 8002162:	e7c7      	b.n	80020f4 <HAL_RCC_ClockConfig+0x1c>
 8002164:	686b      	ldr	r3, [r5, #4]
 8002166:	4c56      	ldr	r4, [pc, #344]	; (80022c0 <HAL_RCC_ClockConfig+0x1e8>)
 8002168:	2b03      	cmp	r3, #3
 800216a:	d174      	bne.n	8002256 <HAL_RCC_ClockConfig+0x17e>
 800216c:	6823      	ldr	r3, [r4, #0]
 800216e:	019a      	lsls	r2, r3, #6
 8002170:	d5b7      	bpl.n	80020e2 <HAL_RCC_ClockConfig+0xa>
 8002172:	68e3      	ldr	r3, [r4, #12]
 8002174:	f003 0303 	and.w	r3, r3, #3
 8002178:	2b01      	cmp	r3, #1
 800217a:	d11f      	bne.n	80021bc <HAL_RCC_ClockConfig+0xe4>
 800217c:	6823      	ldr	r3, [r4, #0]
 800217e:	4a53      	ldr	r2, [pc, #332]	; (80022cc <HAL_RCC_ClockConfig+0x1f4>)
 8002180:	071b      	lsls	r3, r3, #28
 8002182:	bf55      	itete	pl
 8002184:	f8d4 3094 	ldrpl.w	r3, [r4, #148]	; 0x94
 8002188:	6823      	ldrmi	r3, [r4, #0]
 800218a:	f3c3 2303 	ubfxpl	r3, r3, #8, #4
 800218e:	f3c3 1303 	ubfxmi	r3, r3, #4, #4
 8002192:	f852 2023 	ldr.w	r2, [r2, r3, lsl #2]
 8002196:	68e7      	ldr	r7, [r4, #12]
 8002198:	68e3      	ldr	r3, [r4, #12]
 800219a:	f007 0703 	and.w	r7, r7, #3
 800219e:	f3c3 1303 	ubfx	r3, r3, #4, #4
 80021a2:	2f02      	cmp	r7, #2
 80021a4:	f103 0001 	add.w	r0, r3, #1
 80021a8:	d00a      	beq.n	80021c0 <HAL_RCC_ClockConfig+0xe8>
 80021aa:	2f03      	cmp	r7, #3
 80021ac:	d03c      	beq.n	8002228 <HAL_RCC_ClockConfig+0x150>
 80021ae:	fbb2 f3f0 	udiv	r3, r2, r0
 80021b2:	68e7      	ldr	r7, [r4, #12]
 80021b4:	f3c7 2706 	ubfx	r7, r7, #8, #7
 80021b8:	437b      	muls	r3, r7
 80021ba:	e008      	b.n	80021ce <HAL_RCC_ClockConfig+0xf6>
 80021bc:	2200      	movs	r2, #0
 80021be:	e7ea      	b.n	8002196 <HAL_RCC_ClockConfig+0xbe>
 80021c0:	68e2      	ldr	r2, [r4, #12]
 80021c2:	4b43      	ldr	r3, [pc, #268]	; (80022d0 <HAL_RCC_ClockConfig+0x1f8>)
 80021c4:	f3c2 2206 	ubfx	r2, r2, #8, #7
 80021c8:	fbb3 f3f0 	udiv	r3, r3, r0
 80021cc:	4353      	muls	r3, r2
 80021ce:	68e2      	ldr	r2, [r4, #12]
 80021d0:	f3c2 6241 	ubfx	r2, r2, #25, #2
 80021d4:	3201      	adds	r2, #1
 80021d6:	0052      	lsls	r2, r2, #1
 80021d8:	fbb3 f3f2 	udiv	r3, r3, r2
 80021dc:	4a3d      	ldr	r2, [pc, #244]	; (80022d4 <HAL_RCC_ClockConfig+0x1fc>)
 80021de:	4293      	cmp	r3, r2
 80021e0:	d827      	bhi.n	8002232 <HAL_RCC_ClockConfig+0x15a>
 80021e2:	2700      	movs	r7, #0
 80021e4:	68a3      	ldr	r3, [r4, #8]
 80021e6:	686a      	ldr	r2, [r5, #4]
 80021e8:	f023 0303 	bic.w	r3, r3, #3
 80021ec:	4313      	orrs	r3, r2
 80021ee:	60a3      	str	r3, [r4, #8]
 80021f0:	f7fe fae2 	bl	80007b8 <HAL_GetTick>
 80021f4:	f241 3988 	movw	r9, #5000	; 0x1388
 80021f8:	4680      	mov	r8, r0
 80021fa:	68a3      	ldr	r3, [r4, #8]
 80021fc:	686a      	ldr	r2, [r5, #4]
 80021fe:	f003 030c 	and.w	r3, r3, #12
 8002202:	ebb3 0f82 	cmp.w	r3, r2, lsl #2
 8002206:	f43f af79 	beq.w	80020fc <HAL_RCC_ClockConfig+0x24>
 800220a:	f7fe fad5 	bl	80007b8 <HAL_GetTick>
 800220e:	eba0 0008 	sub.w	r0, r0, r8
 8002212:	4548      	cmp	r0, r9
 8002214:	d9f1      	bls.n	80021fa <HAL_RCC_ClockConfig+0x122>
 8002216:	68a3      	ldr	r3, [r4, #8]
 8002218:	686a      	ldr	r2, [r5, #4]
 800221a:	f003 030c 	and.w	r3, r3, #12
 800221e:	ebb3 0f82 	cmp.w	r3, r2, lsl #2
 8002222:	d0ea      	beq.n	80021fa <HAL_RCC_ClockConfig+0x122>
 8002224:	2003      	movs	r0, #3
 8002226:	e75d      	b.n	80020e4 <HAL_RCC_ClockConfig+0xc>
 8002228:	68e2      	ldr	r2, [r4, #12]
 800222a:	4b2b      	ldr	r3, [pc, #172]	; (80022d8 <HAL_RCC_ClockConfig+0x200>)
 800222c:	f3c2 2206 	ubfx	r2, r2, #8, #7
 8002230:	e7ca      	b.n	80021c8 <HAL_RCC_ClockConfig+0xf0>
 8002232:	68a3      	ldr	r3, [r4, #8]
 8002234:	f013 0ff0 	tst.w	r3, #240	; 0xf0
 8002238:	d107      	bne.n	800224a <HAL_RCC_ClockConfig+0x172>
 800223a:	68a3      	ldr	r3, [r4, #8]
 800223c:	2780      	movs	r7, #128	; 0x80
 800223e:	f023 03f0 	bic.w	r3, r3, #240	; 0xf0
 8002242:	f043 0380 	orr.w	r3, r3, #128	; 0x80
 8002246:	60a3      	str	r3, [r4, #8]
 8002248:	e7cc      	b.n	80021e4 <HAL_RCC_ClockConfig+0x10c>
 800224a:	078f      	lsls	r7, r1, #30
 800224c:	d5c9      	bpl.n	80021e2 <HAL_RCC_ClockConfig+0x10a>
 800224e:	68ab      	ldr	r3, [r5, #8]
 8002250:	2b00      	cmp	r3, #0
 8002252:	d1c6      	bne.n	80021e2 <HAL_RCC_ClockConfig+0x10a>
 8002254:	e7f1      	b.n	800223a <HAL_RCC_ClockConfig+0x162>
 8002256:	2b02      	cmp	r3, #2
 8002258:	d10a      	bne.n	8002270 <HAL_RCC_ClockConfig+0x198>
 800225a:	6823      	ldr	r3, [r4, #0]
 800225c:	f413 3f00 	tst.w	r3, #131072	; 0x20000
 8002260:	f43f af3f 	beq.w	80020e2 <HAL_RCC_ClockConfig+0xa>
 8002264:	f7ff fbb2 	bl	80019cc <HAL_RCC_GetSysClockFreq>
 8002268:	4b1a      	ldr	r3, [pc, #104]	; (80022d4 <HAL_RCC_ClockConfig+0x1fc>)
 800226a:	4298      	cmp	r0, r3
 800226c:	d9b9      	bls.n	80021e2 <HAL_RCC_ClockConfig+0x10a>
 800226e:	e7e4      	b.n	800223a <HAL_RCC_ClockConfig+0x162>
 8002270:	b91b      	cbnz	r3, 800227a <HAL_RCC_ClockConfig+0x1a2>
 8002272:	6823      	ldr	r3, [r4, #0]
 8002274:	f013 0f02 	tst.w	r3, #2
 8002278:	e7f2      	b.n	8002260 <HAL_RCC_ClockConfig+0x188>
 800227a:	6823      	ldr	r3, [r4, #0]
 800227c:	f413 6f80 	tst.w	r3, #1024	; 0x400
 8002280:	e7ee      	b.n	8002260 <HAL_RCC_ClockConfig+0x188>
 8002282:	2f80      	cmp	r7, #128	; 0x80
 8002284:	f47f af45 	bne.w	8002112 <HAL_RCC_ClockConfig+0x3a>
 8002288:	4a0d      	ldr	r2, [pc, #52]	; (80022c0 <HAL_RCC_ClockConfig+0x1e8>)
 800228a:	6893      	ldr	r3, [r2, #8]
 800228c:	f023 03f0 	bic.w	r3, r3, #240	; 0xf0
 8002290:	e73e      	b.n	8002110 <HAL_RCC_ClockConfig+0x38>
 8002292:	6813      	ldr	r3, [r2, #0]
 8002294:	f023 030f 	bic.w	r3, r3, #15
 8002298:	4333      	orrs	r3, r6
 800229a:	6013      	str	r3, [r2, #0]
 800229c:	6813      	ldr	r3, [r2, #0]
 800229e:	f003 030f 	and.w	r3, r3, #15
 80022a2:	42b3      	cmp	r3, r6
 80022a4:	f47f af1d 	bne.w	80020e2 <HAL_RCC_ClockConfig+0xa>
 80022a8:	e73a      	b.n	8002120 <HAL_RCC_ClockConfig+0x48>
 80022aa:	4a05      	ldr	r2, [pc, #20]	; (80022c0 <HAL_RCC_ClockConfig+0x1e8>)
 80022ac:	68e8      	ldr	r0, [r5, #12]
 80022ae:	6893      	ldr	r3, [r2, #8]
 80022b0:	f423 63e0 	bic.w	r3, r3, #1792	; 0x700
 80022b4:	4303      	orrs	r3, r0
 80022b6:	6093      	str	r3, [r2, #8]
 80022b8:	e735      	b.n	8002126 <HAL_RCC_ClockConfig+0x4e>
 80022ba:	bf00      	nop
 80022bc:	40022000 	.word	0x40022000
 80022c0:	40021000 	.word	0x40021000
 80022c4:	20000000 	.word	0x20000000
 80022c8:	20000008 	.word	0x20000008
 80022cc:	08004790 	.word	0x08004790
 80022d0:	00f42400 	.word	0x00f42400
 80022d4:	04c4b400 	.word	0x04c4b400
 80022d8:	01e84800 	.word	0x01e84800

080022dc <RCCEx_PLLSAI1_Config>:
 80022dc:	b5f8      	push	{r3, r4, r5, r6, r7, lr}
 80022de:	4605      	mov	r5, r0
 80022e0:	6800      	ldr	r0, [r0, #0]
 80022e2:	460f      	mov	r7, r1
 80022e4:	2802      	cmp	r0, #2
 80022e6:	d031      	beq.n	800234c <RCCEx_PLLSAI1_Config+0x70>
 80022e8:	2803      	cmp	r0, #3
 80022ea:	d036      	beq.n	800235a <RCCEx_PLLSAI1_Config+0x7e>
 80022ec:	2801      	cmp	r0, #1
 80022ee:	d132      	bne.n	8002356 <RCCEx_PLLSAI1_Config+0x7a>
 80022f0:	4a35      	ldr	r2, [pc, #212]	; (80023c8 <RCCEx_PLLSAI1_Config+0xec>)
 80022f2:	6812      	ldr	r2, [r2, #0]
 80022f4:	0794      	lsls	r4, r2, #30
 80022f6:	d536      	bpl.n	8002366 <RCCEx_PLLSAI1_Config+0x8a>
 80022f8:	4c33      	ldr	r4, [pc, #204]	; (80023c8 <RCCEx_PLLSAI1_Config+0xec>)
 80022fa:	6823      	ldr	r3, [r4, #0]
 80022fc:	f023 6380 	bic.w	r3, r3, #67108864	; 0x4000000
 8002300:	6023      	str	r3, [r4, #0]
 8002302:	f7fe fa59 	bl	80007b8 <HAL_GetTick>
 8002306:	4606      	mov	r6, r0
 8002308:	6823      	ldr	r3, [r4, #0]
 800230a:	0119      	lsls	r1, r3, #4
 800230c:	d507      	bpl.n	800231e <RCCEx_PLLSAI1_Config+0x42>
 800230e:	f7fe fa53 	bl	80007b8 <HAL_GetTick>
 8002312:	1b80      	subs	r0, r0, r6
 8002314:	2802      	cmp	r0, #2
 8002316:	d9f7      	bls.n	8002308 <RCCEx_PLLSAI1_Config+0x2c>
 8002318:	6823      	ldr	r3, [r4, #0]
 800231a:	0118      	lsls	r0, r3, #4
 800231c:	d422      	bmi.n	8002364 <RCCEx_PLLSAI1_Config+0x88>
 800231e:	68ab      	ldr	r3, [r5, #8]
 8002320:	f8d5 c000 	ldr.w	ip, [r5]
 8002324:	021e      	lsls	r6, r3, #8
 8002326:	686b      	ldr	r3, [r5, #4]
 8002328:	3b01      	subs	r3, #1
 800232a:	0118      	lsls	r0, r3, #4
 800232c:	b1e7      	cbz	r7, 8002368 <RCCEx_PLLSAI1_Config+0x8c>
 800232e:	2f01      	cmp	r7, #1
 8002330:	d13d      	bne.n	80023ae <RCCEx_PLLSAI1_Config+0xd2>
 8002332:	6923      	ldr	r3, [r4, #16]
 8002334:	4a25      	ldr	r2, [pc, #148]	; (80023cc <RCCEx_PLLSAI1_Config+0xf0>)
 8002336:	692f      	ldr	r7, [r5, #16]
 8002338:	401a      	ands	r2, r3
 800233a:	ea42 030c 	orr.w	r3, r2, ip
 800233e:	087f      	lsrs	r7, r7, #1
 8002340:	4333      	orrs	r3, r6
 8002342:	3f01      	subs	r7, #1
 8002344:	4303      	orrs	r3, r0
 8002346:	ea43 5347 	orr.w	r3, r3, r7, lsl #21
 800234a:	e017      	b.n	800237c <RCCEx_PLLSAI1_Config+0xa0>
 800234c:	4b1e      	ldr	r3, [pc, #120]	; (80023c8 <RCCEx_PLLSAI1_Config+0xec>)
 800234e:	681b      	ldr	r3, [r3, #0]
 8002350:	f413 6f80 	tst.w	r3, #1024	; 0x400
 8002354:	d1d0      	bne.n	80022f8 <RCCEx_PLLSAI1_Config+0x1c>
 8002356:	2001      	movs	r0, #1
 8002358:	e005      	b.n	8002366 <RCCEx_PLLSAI1_Config+0x8a>
 800235a:	4b1b      	ldr	r3, [pc, #108]	; (80023c8 <RCCEx_PLLSAI1_Config+0xec>)
 800235c:	681b      	ldr	r3, [r3, #0]
 800235e:	f413 2fc0 	tst.w	r3, #393216	; 0x60000
 8002362:	e7f7      	b.n	8002354 <RCCEx_PLLSAI1_Config+0x78>
 8002364:	2003      	movs	r0, #3
 8002366:	bdf8      	pop	{r3, r4, r5, r6, r7, pc}
 8002368:	6923      	ldr	r3, [r4, #16]
 800236a:	4919      	ldr	r1, [pc, #100]	; (80023d0 <RCCEx_PLLSAI1_Config+0xf4>)
 800236c:	4019      	ands	r1, r3
 800236e:	ea41 030c 	orr.w	r3, r1, ip
 8002372:	68e9      	ldr	r1, [r5, #12]
 8002374:	4333      	orrs	r3, r6
 8002376:	ea43 63c1 	orr.w	r3, r3, r1, lsl #27
 800237a:	4303      	orrs	r3, r0
 800237c:	6123      	str	r3, [r4, #16]
 800237e:	6823      	ldr	r3, [r4, #0]
 8002380:	f043 6380 	orr.w	r3, r3, #67108864	; 0x4000000
 8002384:	6023      	str	r3, [r4, #0]
 8002386:	f7fe fa17 	bl	80007b8 <HAL_GetTick>
 800238a:	4606      	mov	r6, r0
 800238c:	6823      	ldr	r3, [r4, #0]
 800238e:	011b      	lsls	r3, r3, #4
 8002390:	d407      	bmi.n	80023a2 <RCCEx_PLLSAI1_Config+0xc6>
 8002392:	f7fe fa11 	bl	80007b8 <HAL_GetTick>
 8002396:	1b80      	subs	r0, r0, r6
 8002398:	2802      	cmp	r0, #2
 800239a:	d9f7      	bls.n	800238c <RCCEx_PLLSAI1_Config+0xb0>
 800239c:	6823      	ldr	r3, [r4, #0]
 800239e:	011a      	lsls	r2, r3, #4
 80023a0:	d5e0      	bpl.n	8002364 <RCCEx_PLLSAI1_Config+0x88>
 80023a2:	6923      	ldr	r3, [r4, #16]
 80023a4:	69aa      	ldr	r2, [r5, #24]
 80023a6:	2000      	movs	r0, #0
 80023a8:	4313      	orrs	r3, r2
 80023aa:	6123      	str	r3, [r4, #16]
 80023ac:	e7db      	b.n	8002366 <RCCEx_PLLSAI1_Config+0x8a>
 80023ae:	6922      	ldr	r2, [r4, #16]
 80023b0:	4b08      	ldr	r3, [pc, #32]	; (80023d4 <RCCEx_PLLSAI1_Config+0xf8>)
 80023b2:	4013      	ands	r3, r2
 80023b4:	696a      	ldr	r2, [r5, #20]
 80023b6:	ea43 030c 	orr.w	r3, r3, ip
 80023ba:	4333      	orrs	r3, r6
 80023bc:	0852      	lsrs	r2, r2, #1
 80023be:	4303      	orrs	r3, r0
 80023c0:	3a01      	subs	r2, #1
 80023c2:	ea43 6342 	orr.w	r3, r3, r2, lsl #25
 80023c6:	e7d9      	b.n	800237c <RCCEx_PLLSAI1_Config+0xa0>
 80023c8:	40021000 	.word	0x40021000
 80023cc:	ff9f800c 	.word	0xff9f800c
 80023d0:	07ff800c 	.word	0x07ff800c
 80023d4:	f9ff800c 	.word	0xf9ff800c

080023d8 <RCCEx_PLLSAI2_Config.constprop.0>:
 80023d8:	b570      	push	{r4, r5, r6, lr}
 80023da:	4605      	mov	r5, r0
 80023dc:	6800      	ldr	r0, [r0, #0]
 80023de:	2802      	cmp	r0, #2
 80023e0:	d042      	beq.n	8002468 <RCCEx_PLLSAI2_Config.constprop.0+0x90>
 80023e2:	2803      	cmp	r0, #3
 80023e4:	d047      	beq.n	8002476 <RCCEx_PLLSAI2_Config.constprop.0+0x9e>
 80023e6:	2801      	cmp	r0, #1
 80023e8:	d143      	bne.n	8002472 <RCCEx_PLLSAI2_Config.constprop.0+0x9a>
 80023ea:	4a26      	ldr	r2, [pc, #152]	; (8002484 <RCCEx_PLLSAI2_Config.constprop.0+0xac>)
 80023ec:	6812      	ldr	r2, [r2, #0]
 80023ee:	0794      	lsls	r4, r2, #30
 80023f0:	d547      	bpl.n	8002482 <RCCEx_PLLSAI2_Config.constprop.0+0xaa>
 80023f2:	4c24      	ldr	r4, [pc, #144]	; (8002484 <RCCEx_PLLSAI2_Config.constprop.0+0xac>)
 80023f4:	6823      	ldr	r3, [r4, #0]
 80023f6:	f023 5380 	bic.w	r3, r3, #268435456	; 0x10000000
 80023fa:	6023      	str	r3, [r4, #0]
 80023fc:	f7fe f9dc 	bl	80007b8 <HAL_GetTick>
 8002400:	4606      	mov	r6, r0
 8002402:	6823      	ldr	r3, [r4, #0]
 8002404:	0099      	lsls	r1, r3, #2
 8002406:	d507      	bpl.n	8002418 <RCCEx_PLLSAI2_Config.constprop.0+0x40>
 8002408:	f7fe f9d6 	bl	80007b8 <HAL_GetTick>
 800240c:	1b80      	subs	r0, r0, r6
 800240e:	2802      	cmp	r0, #2
 8002410:	d9f7      	bls.n	8002402 <RCCEx_PLLSAI2_Config.constprop.0+0x2a>
 8002412:	6823      	ldr	r3, [r4, #0]
 8002414:	0098      	lsls	r0, r3, #2
 8002416:	d433      	bmi.n	8002480 <RCCEx_PLLSAI2_Config.constprop.0+0xa8>
 8002418:	6962      	ldr	r2, [r4, #20]
 800241a:	4b1b      	ldr	r3, [pc, #108]	; (8002488 <RCCEx_PLLSAI2_Config.constprop.0+0xb0>)
 800241c:	4013      	ands	r3, r2
 800241e:	682a      	ldr	r2, [r5, #0]
 8002420:	4313      	orrs	r3, r2
 8002422:	68aa      	ldr	r2, [r5, #8]
 8002424:	ea43 2302 	orr.w	r3, r3, r2, lsl #8
 8002428:	68ea      	ldr	r2, [r5, #12]
 800242a:	ea43 63c2 	orr.w	r3, r3, r2, lsl #27
 800242e:	686a      	ldr	r2, [r5, #4]
 8002430:	3a01      	subs	r2, #1
 8002432:	ea43 1302 	orr.w	r3, r3, r2, lsl #4
 8002436:	6163      	str	r3, [r4, #20]
 8002438:	6823      	ldr	r3, [r4, #0]
 800243a:	f043 5380 	orr.w	r3, r3, #268435456	; 0x10000000
 800243e:	6023      	str	r3, [r4, #0]
 8002440:	f7fe f9ba 	bl	80007b8 <HAL_GetTick>
 8002444:	4606      	mov	r6, r0
 8002446:	6823      	ldr	r3, [r4, #0]
 8002448:	009b      	lsls	r3, r3, #2
 800244a:	d407      	bmi.n	800245c <RCCEx_PLLSAI2_Config.constprop.0+0x84>
 800244c:	f7fe f9b4 	bl	80007b8 <HAL_GetTick>
 8002450:	1b80      	subs	r0, r0, r6
 8002452:	2802      	cmp	r0, #2
 8002454:	d9f7      	bls.n	8002446 <RCCEx_PLLSAI2_Config.constprop.0+0x6e>
 8002456:	6823      	ldr	r3, [r4, #0]
 8002458:	009a      	lsls	r2, r3, #2
 800245a:	d511      	bpl.n	8002480 <RCCEx_PLLSAI2_Config.constprop.0+0xa8>
 800245c:	6963      	ldr	r3, [r4, #20]
 800245e:	692a      	ldr	r2, [r5, #16]
 8002460:	2000      	movs	r0, #0
 8002462:	4313      	orrs	r3, r2
 8002464:	6163      	str	r3, [r4, #20]
 8002466:	e00c      	b.n	8002482 <RCCEx_PLLSAI2_Config.constprop.0+0xaa>
 8002468:	4b06      	ldr	r3, [pc, #24]	; (8002484 <RCCEx_PLLSAI2_Config.constprop.0+0xac>)
 800246a:	681b      	ldr	r3, [r3, #0]
 800246c:	f413 6f80 	tst.w	r3, #1024	; 0x400
 8002470:	d1bf      	bne.n	80023f2 <RCCEx_PLLSAI2_Config.constprop.0+0x1a>
 8002472:	2001      	movs	r0, #1
 8002474:	e005      	b.n	8002482 <RCCEx_PLLSAI2_Config.constprop.0+0xaa>
 8002476:	4b03      	ldr	r3, [pc, #12]	; (8002484 <RCCEx_PLLSAI2_Config.constprop.0+0xac>)
 8002478:	681b      	ldr	r3, [r3, #0]
 800247a:	f413 2fc0 	tst.w	r3, #393216	; 0x60000
 800247e:	e7f7      	b.n	8002470 <RCCEx_PLLSAI2_Config.constprop.0+0x98>
 8002480:	2003      	movs	r0, #3
 8002482:	bd70      	pop	{r4, r5, r6, pc}
 8002484:	40021000 	.word	0x40021000
 8002488:	07ff800c 	.word	0x07ff800c

0800248c <HAL_RCCEx_PeriphCLKConfig>:
 800248c:	e92d 47f3 	stmdb	sp!, {r0, r1, r4, r5, r6, r7, r8, r9, sl, lr}
 8002490:	6805      	ldr	r5, [r0, #0]
 8002492:	4604      	mov	r4, r0
 8002494:	f415 6500 	ands.w	r5, r5, #2048	; 0x800
 8002498:	d007      	beq.n	80024aa <HAL_RCCEx_PeriphCLKConfig+0x1e>
 800249a:	6ec1      	ldr	r1, [r0, #108]	; 0x6c
 800249c:	2940      	cmp	r1, #64	; 0x40
 800249e:	d023      	beq.n	80024e8 <HAL_RCCEx_PeriphCLKConfig+0x5c>
 80024a0:	d813      	bhi.n	80024ca <HAL_RCCEx_PeriphCLKConfig+0x3e>
 80024a2:	b339      	cbz	r1, 80024f4 <HAL_RCCEx_PeriphCLKConfig+0x68>
 80024a4:	2920      	cmp	r1, #32
 80024a6:	d02c      	beq.n	8002502 <HAL_RCCEx_PeriphCLKConfig+0x76>
 80024a8:	2501      	movs	r5, #1
 80024aa:	6823      	ldr	r3, [r4, #0]
 80024ac:	04db      	lsls	r3, r3, #19
 80024ae:	d50a      	bpl.n	80024c6 <HAL_RCCEx_PeriphCLKConfig+0x3a>
 80024b0:	6f21      	ldr	r1, [r4, #112]	; 0x70
 80024b2:	f5b1 7f00 	cmp.w	r1, #512	; 0x200
 80024b6:	d030      	beq.n	800251a <HAL_RCCEx_PeriphCLKConfig+0x8e>
 80024b8:	d827      	bhi.n	800250a <HAL_RCCEx_PeriphCLKConfig+0x7e>
 80024ba:	b3a1      	cbz	r1, 8002526 <HAL_RCCEx_PeriphCLKConfig+0x9a>
 80024bc:	f5b1 7f80 	cmp.w	r1, #256	; 0x100
 80024c0:	f000 8140 	beq.w	8002744 <HAL_RCCEx_PeriphCLKConfig+0x2b8>
 80024c4:	2501      	movs	r5, #1
 80024c6:	462e      	mov	r6, r5
 80024c8:	e03d      	b.n	8002546 <HAL_RCCEx_PeriphCLKConfig+0xba>
 80024ca:	2960      	cmp	r1, #96	; 0x60
 80024cc:	d001      	beq.n	80024d2 <HAL_RCCEx_PeriphCLKConfig+0x46>
 80024ce:	2980      	cmp	r1, #128	; 0x80
 80024d0:	d1ea      	bne.n	80024a8 <HAL_RCCEx_PeriphCLKConfig+0x1c>
 80024d2:	4aa9      	ldr	r2, [pc, #676]	; (8002778 <HAL_RCCEx_PeriphCLKConfig+0x2ec>)
 80024d4:	6ee1      	ldr	r1, [r4, #108]	; 0x6c
 80024d6:	f8d2 309c 	ldr.w	r3, [r2, #156]	; 0x9c
 80024da:	2500      	movs	r5, #0
 80024dc:	f023 03e0 	bic.w	r3, r3, #224	; 0xe0
 80024e0:	430b      	orrs	r3, r1
 80024e2:	f8c2 309c 	str.w	r3, [r2, #156]	; 0x9c
 80024e6:	e7e0      	b.n	80024aa <HAL_RCCEx_PeriphCLKConfig+0x1e>
 80024e8:	4aa3      	ldr	r2, [pc, #652]	; (8002778 <HAL_RCCEx_PeriphCLKConfig+0x2ec>)
 80024ea:	68d3      	ldr	r3, [r2, #12]
 80024ec:	f443 3380 	orr.w	r3, r3, #65536	; 0x10000
 80024f0:	60d3      	str	r3, [r2, #12]
 80024f2:	e7ee      	b.n	80024d2 <HAL_RCCEx_PeriphCLKConfig+0x46>
 80024f4:	3004      	adds	r0, #4
 80024f6:	f7ff fef1 	bl	80022dc <RCCEx_PLLSAI1_Config>
 80024fa:	4605      	mov	r5, r0
 80024fc:	2800      	cmp	r0, #0
 80024fe:	d1d4      	bne.n	80024aa <HAL_RCCEx_PeriphCLKConfig+0x1e>
 8002500:	e7e7      	b.n	80024d2 <HAL_RCCEx_PeriphCLKConfig+0x46>
 8002502:	3020      	adds	r0, #32
 8002504:	f7ff ff68 	bl	80023d8 <RCCEx_PLLSAI2_Config.constprop.0>
 8002508:	e7f7      	b.n	80024fa <HAL_RCCEx_PeriphCLKConfig+0x6e>
 800250a:	f5b1 7f40 	cmp.w	r1, #768	; 0x300
 800250e:	d002      	beq.n	8002516 <HAL_RCCEx_PeriphCLKConfig+0x8a>
 8002510:	f5b1 6f80 	cmp.w	r1, #1024	; 0x400
 8002514:	d1d6      	bne.n	80024c4 <HAL_RCCEx_PeriphCLKConfig+0x38>
 8002516:	462e      	mov	r6, r5
 8002518:	e009      	b.n	800252e <HAL_RCCEx_PeriphCLKConfig+0xa2>
 800251a:	4a97      	ldr	r2, [pc, #604]	; (8002778 <HAL_RCCEx_PeriphCLKConfig+0x2ec>)
 800251c:	68d3      	ldr	r3, [r2, #12]
 800251e:	f443 3380 	orr.w	r3, r3, #65536	; 0x10000
 8002522:	60d3      	str	r3, [r2, #12]
 8002524:	e7f7      	b.n	8002516 <HAL_RCCEx_PeriphCLKConfig+0x8a>
 8002526:	1d20      	adds	r0, r4, #4
 8002528:	f7ff fed8 	bl	80022dc <RCCEx_PLLSAI1_Config>
 800252c:	4606      	mov	r6, r0
 800252e:	2e00      	cmp	r6, #0
 8002530:	f040 810d 	bne.w	800274e <HAL_RCCEx_PeriphCLKConfig+0x2c2>
 8002534:	4a90      	ldr	r2, [pc, #576]	; (8002778 <HAL_RCCEx_PeriphCLKConfig+0x2ec>)
 8002536:	6f21      	ldr	r1, [r4, #112]	; 0x70
 8002538:	f8d2 309c 	ldr.w	r3, [r2, #156]	; 0x9c
 800253c:	f423 63e0 	bic.w	r3, r3, #1792	; 0x700
 8002540:	430b      	orrs	r3, r1
 8002542:	f8c2 309c 	str.w	r3, [r2, #156]	; 0x9c
 8002546:	6823      	ldr	r3, [r4, #0]
 8002548:	039f      	lsls	r7, r3, #14
 800254a:	d534      	bpl.n	80025b6 <HAL_RCCEx_PeriphCLKConfig+0x12a>
 800254c:	4f8a      	ldr	r7, [pc, #552]	; (8002778 <HAL_RCCEx_PeriphCLKConfig+0x2ec>)
 800254e:	6dbb      	ldr	r3, [r7, #88]	; 0x58
 8002550:	00d8      	lsls	r0, r3, #3
 8002552:	f100 80fe 	bmi.w	8002752 <HAL_RCCEx_PeriphCLKConfig+0x2c6>
 8002556:	f04f 0901 	mov.w	r9, #1
 800255a:	6dbb      	ldr	r3, [r7, #88]	; 0x58
 800255c:	f043 5380 	orr.w	r3, r3, #268435456	; 0x10000000
 8002560:	65bb      	str	r3, [r7, #88]	; 0x58
 8002562:	6dbb      	ldr	r3, [r7, #88]	; 0x58
 8002564:	f003 5380 	and.w	r3, r3, #268435456	; 0x10000000
 8002568:	9301      	str	r3, [sp, #4]
 800256a:	9b01      	ldr	r3, [sp, #4]
 800256c:	f8df 820c 	ldr.w	r8, [pc, #524]	; 800277c <HAL_RCCEx_PeriphCLKConfig+0x2f0>
 8002570:	f8d8 3000 	ldr.w	r3, [r8]
 8002574:	f443 7380 	orr.w	r3, r3, #256	; 0x100
 8002578:	f8c8 3000 	str.w	r3, [r8]
 800257c:	f7fe f91c 	bl	80007b8 <HAL_GetTick>
 8002580:	4682      	mov	sl, r0
 8002582:	f8d8 3000 	ldr.w	r3, [r8]
 8002586:	05da      	lsls	r2, r3, #23
 8002588:	d40a      	bmi.n	80025a0 <HAL_RCCEx_PeriphCLKConfig+0x114>
 800258a:	f7fe f915 	bl	80007b8 <HAL_GetTick>
 800258e:	eba0 000a 	sub.w	r0, r0, sl
 8002592:	2802      	cmp	r0, #2
 8002594:	d9f5      	bls.n	8002582 <HAL_RCCEx_PeriphCLKConfig+0xf6>
 8002596:	f8d8 3000 	ldr.w	r3, [r8]
 800259a:	05d9      	lsls	r1, r3, #23
 800259c:	f140 811b 	bpl.w	80027d6 <HAL_RCCEx_PeriphCLKConfig+0x34a>
 80025a0:	2e00      	cmp	r6, #0
 80025a2:	f000 80d9 	beq.w	8002758 <HAL_RCCEx_PeriphCLKConfig+0x2cc>
 80025a6:	4635      	mov	r5, r6
 80025a8:	f1b9 0f00 	cmp.w	r9, #0
 80025ac:	d003      	beq.n	80025b6 <HAL_RCCEx_PeriphCLKConfig+0x12a>
 80025ae:	6dbb      	ldr	r3, [r7, #88]	; 0x58
 80025b0:	f023 5380 	bic.w	r3, r3, #268435456	; 0x10000000
 80025b4:	65bb      	str	r3, [r7, #88]	; 0x58
 80025b6:	6823      	ldr	r3, [r4, #0]
 80025b8:	07da      	lsls	r2, r3, #31
 80025ba:	d508      	bpl.n	80025ce <HAL_RCCEx_PeriphCLKConfig+0x142>
 80025bc:	496e      	ldr	r1, [pc, #440]	; (8002778 <HAL_RCCEx_PeriphCLKConfig+0x2ec>)
 80025be:	6b60      	ldr	r0, [r4, #52]	; 0x34
 80025c0:	f8d1 2088 	ldr.w	r2, [r1, #136]	; 0x88
 80025c4:	f022 0203 	bic.w	r2, r2, #3
 80025c8:	4302      	orrs	r2, r0
 80025ca:	f8c1 2088 	str.w	r2, [r1, #136]	; 0x88
 80025ce:	079f      	lsls	r7, r3, #30
 80025d0:	d508      	bpl.n	80025e4 <HAL_RCCEx_PeriphCLKConfig+0x158>
 80025d2:	4969      	ldr	r1, [pc, #420]	; (8002778 <HAL_RCCEx_PeriphCLKConfig+0x2ec>)
 80025d4:	6ba0      	ldr	r0, [r4, #56]	; 0x38
 80025d6:	f8d1 2088 	ldr.w	r2, [r1, #136]	; 0x88
 80025da:	f022 020c 	bic.w	r2, r2, #12
 80025de:	4302      	orrs	r2, r0
 80025e0:	f8c1 2088 	str.w	r2, [r1, #136]	; 0x88
 80025e4:	0758      	lsls	r0, r3, #29
 80025e6:	d508      	bpl.n	80025fa <HAL_RCCEx_PeriphCLKConfig+0x16e>
 80025e8:	4963      	ldr	r1, [pc, #396]	; (8002778 <HAL_RCCEx_PeriphCLKConfig+0x2ec>)
 80025ea:	6be0      	ldr	r0, [r4, #60]	; 0x3c
 80025ec:	f8d1 2088 	ldr.w	r2, [r1, #136]	; 0x88
 80025f0:	f022 0230 	bic.w	r2, r2, #48	; 0x30
 80025f4:	4302      	orrs	r2, r0
 80025f6:	f8c1 2088 	str.w	r2, [r1, #136]	; 0x88
 80025fa:	0719      	lsls	r1, r3, #28
 80025fc:	d508      	bpl.n	8002610 <HAL_RCCEx_PeriphCLKConfig+0x184>
 80025fe:	495e      	ldr	r1, [pc, #376]	; (8002778 <HAL_RCCEx_PeriphCLKConfig+0x2ec>)
 8002600:	6c20      	ldr	r0, [r4, #64]	; 0x40
 8002602:	f8d1 2088 	ldr.w	r2, [r1, #136]	; 0x88
 8002606:	f022 02c0 	bic.w	r2, r2, #192	; 0xc0
 800260a:	4302      	orrs	r2, r0
 800260c:	f8c1 2088 	str.w	r2, [r1, #136]	; 0x88
 8002610:	06da      	lsls	r2, r3, #27
 8002612:	d508      	bpl.n	8002626 <HAL_RCCEx_PeriphCLKConfig+0x19a>
 8002614:	4958      	ldr	r1, [pc, #352]	; (8002778 <HAL_RCCEx_PeriphCLKConfig+0x2ec>)
 8002616:	6c60      	ldr	r0, [r4, #68]	; 0x44
 8002618:	f8d1 2088 	ldr.w	r2, [r1, #136]	; 0x88
 800261c:	f422 7240 	bic.w	r2, r2, #768	; 0x300
 8002620:	4302      	orrs	r2, r0
 8002622:	f8c1 2088 	str.w	r2, [r1, #136]	; 0x88
 8002626:	069f      	lsls	r7, r3, #26
 8002628:	d508      	bpl.n	800263c <HAL_RCCEx_PeriphCLKConfig+0x1b0>
 800262a:	4953      	ldr	r1, [pc, #332]	; (8002778 <HAL_RCCEx_PeriphCLKConfig+0x2ec>)
 800262c:	6ca0      	ldr	r0, [r4, #72]	; 0x48
 800262e:	f8d1 2088 	ldr.w	r2, [r1, #136]	; 0x88
 8002632:	f422 6240 	bic.w	r2, r2, #3072	; 0xc00
 8002636:	4302      	orrs	r2, r0
 8002638:	f8c1 2088 	str.w	r2, [r1, #136]	; 0x88
 800263c:	0598      	lsls	r0, r3, #22
 800263e:	d508      	bpl.n	8002652 <HAL_RCCEx_PeriphCLKConfig+0x1c6>
 8002640:	494d      	ldr	r1, [pc, #308]	; (8002778 <HAL_RCCEx_PeriphCLKConfig+0x2ec>)
 8002642:	6de0      	ldr	r0, [r4, #92]	; 0x5c
 8002644:	f8d1 2088 	ldr.w	r2, [r1, #136]	; 0x88
 8002648:	f422 2240 	bic.w	r2, r2, #786432	; 0xc0000
 800264c:	4302      	orrs	r2, r0
 800264e:	f8c1 2088 	str.w	r2, [r1, #136]	; 0x88
 8002652:	0559      	lsls	r1, r3, #21
 8002654:	d508      	bpl.n	8002668 <HAL_RCCEx_PeriphCLKConfig+0x1dc>
 8002656:	4948      	ldr	r1, [pc, #288]	; (8002778 <HAL_RCCEx_PeriphCLKConfig+0x2ec>)
 8002658:	6e20      	ldr	r0, [r4, #96]	; 0x60
 800265a:	f8d1 2088 	ldr.w	r2, [r1, #136]	; 0x88
 800265e:	f422 1240 	bic.w	r2, r2, #3145728	; 0x300000
 8002662:	4302      	orrs	r2, r0
 8002664:	f8c1 2088 	str.w	r2, [r1, #136]	; 0x88
 8002668:	025a      	lsls	r2, r3, #9
 800266a:	d508      	bpl.n	800267e <HAL_RCCEx_PeriphCLKConfig+0x1f2>
 800266c:	4942      	ldr	r1, [pc, #264]	; (8002778 <HAL_RCCEx_PeriphCLKConfig+0x2ec>)
 800266e:	6e60      	ldr	r0, [r4, #100]	; 0x64
 8002670:	f8d1 2088 	ldr.w	r2, [r1, #136]	; 0x88
 8002674:	f422 0240 	bic.w	r2, r2, #12582912	; 0xc00000
 8002678:	4302      	orrs	r2, r0
 800267a:	f8c1 2088 	str.w	r2, [r1, #136]	; 0x88
 800267e:	019b      	lsls	r3, r3, #6
 8002680:	d50c      	bpl.n	800269c <HAL_RCCEx_PeriphCLKConfig+0x210>
 8002682:	6ea3      	ldr	r3, [r4, #104]	; 0x68
 8002684:	f1b3 7f80 	cmp.w	r3, #16777216	; 0x1000000
 8002688:	f000 80a8 	beq.w	80027dc <HAL_RCCEx_PeriphCLKConfig+0x350>
 800268c:	f1b3 7f00 	cmp.w	r3, #33554432	; 0x2000000
 8002690:	f000 80b4 	beq.w	80027fc <HAL_RCCEx_PeriphCLKConfig+0x370>
 8002694:	2b00      	cmp	r3, #0
 8002696:	f000 80a6 	beq.w	80027e6 <HAL_RCCEx_PeriphCLKConfig+0x35a>
 800269a:	2501      	movs	r5, #1
 800269c:	6823      	ldr	r3, [r4, #0]
 800269e:	065f      	lsls	r7, r3, #25
 80026a0:	d508      	bpl.n	80026b4 <HAL_RCCEx_PeriphCLKConfig+0x228>
 80026a2:	4935      	ldr	r1, [pc, #212]	; (8002778 <HAL_RCCEx_PeriphCLKConfig+0x2ec>)
 80026a4:	6ce0      	ldr	r0, [r4, #76]	; 0x4c
 80026a6:	f8d1 2088 	ldr.w	r2, [r1, #136]	; 0x88
 80026aa:	f422 5240 	bic.w	r2, r2, #12288	; 0x3000
 80026ae:	4302      	orrs	r2, r0
 80026b0:	f8c1 2088 	str.w	r2, [r1, #136]	; 0x88
 80026b4:	061e      	lsls	r6, r3, #24
 80026b6:	d508      	bpl.n	80026ca <HAL_RCCEx_PeriphCLKConfig+0x23e>
 80026b8:	492f      	ldr	r1, [pc, #188]	; (8002778 <HAL_RCCEx_PeriphCLKConfig+0x2ec>)
 80026ba:	6d20      	ldr	r0, [r4, #80]	; 0x50
 80026bc:	f8d1 2088 	ldr.w	r2, [r1, #136]	; 0x88
 80026c0:	f422 4240 	bic.w	r2, r2, #49152	; 0xc000
 80026c4:	4302      	orrs	r2, r0
 80026c6:	f8c1 2088 	str.w	r2, [r1, #136]	; 0x88
 80026ca:	05d8      	lsls	r0, r3, #23
 80026cc:	d508      	bpl.n	80026e0 <HAL_RCCEx_PeriphCLKConfig+0x254>
 80026ce:	492a      	ldr	r1, [pc, #168]	; (8002778 <HAL_RCCEx_PeriphCLKConfig+0x2ec>)
 80026d0:	6d60      	ldr	r0, [r4, #84]	; 0x54
 80026d2:	f8d1 2088 	ldr.w	r2, [r1, #136]	; 0x88
 80026d6:	f422 3240 	bic.w	r2, r2, #196608	; 0x30000
 80026da:	4302      	orrs	r2, r0
 80026dc:	f8c1 2088 	str.w	r2, [r1, #136]	; 0x88
 80026e0:	02d9      	lsls	r1, r3, #11
 80026e2:	d508      	bpl.n	80026f6 <HAL_RCCEx_PeriphCLKConfig+0x26a>
 80026e4:	4924      	ldr	r1, [pc, #144]	; (8002778 <HAL_RCCEx_PeriphCLKConfig+0x2ec>)
 80026e6:	6da0      	ldr	r0, [r4, #88]	; 0x58
 80026e8:	f8d1 209c 	ldr.w	r2, [r1, #156]	; 0x9c
 80026ec:	f022 0203 	bic.w	r2, r2, #3
 80026f0:	4302      	orrs	r2, r0
 80026f2:	f8c1 209c 	str.w	r2, [r1, #156]	; 0x9c
 80026f6:	049a      	lsls	r2, r3, #18
 80026f8:	d510      	bpl.n	800271c <HAL_RCCEx_PeriphCLKConfig+0x290>
 80026fa:	4a1f      	ldr	r2, [pc, #124]	; (8002778 <HAL_RCCEx_PeriphCLKConfig+0x2ec>)
 80026fc:	6f61      	ldr	r1, [r4, #116]	; 0x74
 80026fe:	f8d2 3088 	ldr.w	r3, [r2, #136]	; 0x88
 8002702:	f1b1 6f00 	cmp.w	r1, #134217728	; 0x8000000
 8002706:	f023 6340 	bic.w	r3, r3, #201326592	; 0xc000000
 800270a:	ea43 0301 	orr.w	r3, r3, r1
 800270e:	f8c2 3088 	str.w	r3, [r2, #136]	; 0x88
 8002712:	d17b      	bne.n	800280c <HAL_RCCEx_PeriphCLKConfig+0x380>
 8002714:	68d3      	ldr	r3, [r2, #12]
 8002716:	f443 1380 	orr.w	r3, r3, #1048576	; 0x100000
 800271a:	60d3      	str	r3, [r2, #12]
 800271c:	6823      	ldr	r3, [r4, #0]
 800271e:	031b      	lsls	r3, r3, #12
 8002720:	f140 8097 	bpl.w	8002852 <HAL_RCCEx_PeriphCLKConfig+0x3c6>
 8002724:	6fa1      	ldr	r1, [r4, #120]	; 0x78
 8002726:	4b14      	ldr	r3, [pc, #80]	; (8002778 <HAL_RCCEx_PeriphCLKConfig+0x2ec>)
 8002728:	f5b1 4f80 	cmp.w	r1, #16384	; 0x4000
 800272c:	d179      	bne.n	8002822 <HAL_RCCEx_PeriphCLKConfig+0x396>
 800272e:	f8d3 209c 	ldr.w	r2, [r3, #156]	; 0x9c
 8002732:	f442 4280 	orr.w	r2, r2, #16384	; 0x4000
 8002736:	f8c3 209c 	str.w	r2, [r3, #156]	; 0x9c
 800273a:	68da      	ldr	r2, [r3, #12]
 800273c:	f442 3280 	orr.w	r2, r2, #65536	; 0x10000
 8002740:	60da      	str	r2, [r3, #12]
 8002742:	e086      	b.n	8002852 <HAL_RCCEx_PeriphCLKConfig+0x3c6>
 8002744:	f104 0020 	add.w	r0, r4, #32
 8002748:	f7ff fe46 	bl	80023d8 <RCCEx_PLLSAI2_Config.constprop.0>
 800274c:	e6ee      	b.n	800252c <HAL_RCCEx_PeriphCLKConfig+0xa0>
 800274e:	4635      	mov	r5, r6
 8002750:	e6f9      	b.n	8002546 <HAL_RCCEx_PeriphCLKConfig+0xba>
 8002752:	f04f 0900 	mov.w	r9, #0
 8002756:	e709      	b.n	800256c <HAL_RCCEx_PeriphCLKConfig+0xe0>
 8002758:	f8d7 3090 	ldr.w	r3, [r7, #144]	; 0x90
 800275c:	f413 7340 	ands.w	r3, r3, #768	; 0x300
 8002760:	d10e      	bne.n	8002780 <HAL_RCCEx_PeriphCLKConfig+0x2f4>
 8002762:	f8d7 3090 	ldr.w	r3, [r7, #144]	; 0x90
 8002766:	f8d4 2090 	ldr.w	r2, [r4, #144]	; 0x90
 800276a:	f423 7340 	bic.w	r3, r3, #768	; 0x300
 800276e:	4313      	orrs	r3, r2
 8002770:	f8c7 3090 	str.w	r3, [r7, #144]	; 0x90
 8002774:	e718      	b.n	80025a8 <HAL_RCCEx_PeriphCLKConfig+0x11c>
 8002776:	bf00      	nop
 8002778:	40021000 	.word	0x40021000
 800277c:	40007000 	.word	0x40007000
 8002780:	f8d4 2090 	ldr.w	r2, [r4, #144]	; 0x90
 8002784:	4293      	cmp	r3, r2
 8002786:	d0ec      	beq.n	8002762 <HAL_RCCEx_PeriphCLKConfig+0x2d6>
 8002788:	f8d7 2090 	ldr.w	r2, [r7, #144]	; 0x90
 800278c:	f8d7 3090 	ldr.w	r3, [r7, #144]	; 0x90
 8002790:	f422 7140 	bic.w	r1, r2, #768	; 0x300
 8002794:	f443 3380 	orr.w	r3, r3, #65536	; 0x10000
 8002798:	f8c7 3090 	str.w	r3, [r7, #144]	; 0x90
 800279c:	f8d7 3090 	ldr.w	r3, [r7, #144]	; 0x90
 80027a0:	f423 3380 	bic.w	r3, r3, #65536	; 0x10000
 80027a4:	f8c7 3090 	str.w	r3, [r7, #144]	; 0x90
 80027a8:	07d3      	lsls	r3, r2, #31
 80027aa:	f8c7 1090 	str.w	r1, [r7, #144]	; 0x90
 80027ae:	d5d8      	bpl.n	8002762 <HAL_RCCEx_PeriphCLKConfig+0x2d6>
 80027b0:	f7fe f802 	bl	80007b8 <HAL_GetTick>
 80027b4:	f241 3a88 	movw	sl, #5000	; 0x1388
 80027b8:	4680      	mov	r8, r0
 80027ba:	f8d7 3090 	ldr.w	r3, [r7, #144]	; 0x90
 80027be:	0799      	lsls	r1, r3, #30
 80027c0:	d4cf      	bmi.n	8002762 <HAL_RCCEx_PeriphCLKConfig+0x2d6>
 80027c2:	f7fd fff9 	bl	80007b8 <HAL_GetTick>
 80027c6:	eba0 0008 	sub.w	r0, r0, r8
 80027ca:	4550      	cmp	r0, sl
 80027cc:	d9f5      	bls.n	80027ba <HAL_RCCEx_PeriphCLKConfig+0x32e>
 80027ce:	f8d7 3090 	ldr.w	r3, [r7, #144]	; 0x90
 80027d2:	0798      	lsls	r0, r3, #30
 80027d4:	d4c5      	bmi.n	8002762 <HAL_RCCEx_PeriphCLKConfig+0x2d6>
 80027d6:	2503      	movs	r5, #3
 80027d8:	462e      	mov	r6, r5
 80027da:	e6e5      	b.n	80025a8 <HAL_RCCEx_PeriphCLKConfig+0x11c>
 80027dc:	4a54      	ldr	r2, [pc, #336]	; (8002930 <HAL_RCCEx_PeriphCLKConfig+0x4a4>)
 80027de:	68d3      	ldr	r3, [r2, #12]
 80027e0:	f443 1380 	orr.w	r3, r3, #1048576	; 0x100000
 80027e4:	60d3      	str	r3, [r2, #12]
 80027e6:	b97e      	cbnz	r6, 8002808 <HAL_RCCEx_PeriphCLKConfig+0x37c>
 80027e8:	4a51      	ldr	r2, [pc, #324]	; (8002930 <HAL_RCCEx_PeriphCLKConfig+0x4a4>)
 80027ea:	6ea1      	ldr	r1, [r4, #104]	; 0x68
 80027ec:	f8d2 3088 	ldr.w	r3, [r2, #136]	; 0x88
 80027f0:	f023 7340 	bic.w	r3, r3, #50331648	; 0x3000000
 80027f4:	430b      	orrs	r3, r1
 80027f6:	f8c2 3088 	str.w	r3, [r2, #136]	; 0x88
 80027fa:	e74f      	b.n	800269c <HAL_RCCEx_PeriphCLKConfig+0x210>
 80027fc:	2100      	movs	r1, #0
 80027fe:	1d20      	adds	r0, r4, #4
 8002800:	f7ff fd6c 	bl	80022dc <RCCEx_PLLSAI1_Config>
 8002804:	4606      	mov	r6, r0
 8002806:	e7ee      	b.n	80027e6 <HAL_RCCEx_PeriphCLKConfig+0x35a>
 8002808:	4635      	mov	r5, r6
 800280a:	e747      	b.n	800269c <HAL_RCCEx_PeriphCLKConfig+0x210>
 800280c:	f1b1 6f80 	cmp.w	r1, #67108864	; 0x4000000
 8002810:	d184      	bne.n	800271c <HAL_RCCEx_PeriphCLKConfig+0x290>
 8002812:	2101      	movs	r1, #1
 8002814:	1d20      	adds	r0, r4, #4
 8002816:	f7ff fd61 	bl	80022dc <RCCEx_PLLSAI1_Config>
 800281a:	2800      	cmp	r0, #0
 800281c:	bf18      	it	ne
 800281e:	4605      	movne	r5, r0
 8002820:	e77c      	b.n	800271c <HAL_RCCEx_PeriphCLKConfig+0x290>
 8002822:	f8d3 2088 	ldr.w	r2, [r3, #136]	; 0x88
 8002826:	f1b1 6f80 	cmp.w	r1, #67108864	; 0x4000000
 800282a:	f022 6240 	bic.w	r2, r2, #201326592	; 0xc000000
 800282e:	ea42 0201 	orr.w	r2, r2, r1
 8002832:	f8c3 2088 	str.w	r2, [r3, #136]	; 0x88
 8002836:	f8d3 209c 	ldr.w	r2, [r3, #156]	; 0x9c
 800283a:	f422 4280 	bic.w	r2, r2, #16384	; 0x4000
 800283e:	f8c3 209c 	str.w	r2, [r3, #156]	; 0x9c
 8002842:	d16e      	bne.n	8002922 <HAL_RCCEx_PeriphCLKConfig+0x496>
 8002844:	2101      	movs	r1, #1
 8002846:	1d20      	adds	r0, r4, #4
 8002848:	f7ff fd48 	bl	80022dc <RCCEx_PLLSAI1_Config>
 800284c:	2800      	cmp	r0, #0
 800284e:	bf18      	it	ne
 8002850:	4605      	movne	r5, r0
 8002852:	6823      	ldr	r3, [r4, #0]
 8002854:	035f      	lsls	r7, r3, #13
 8002856:	d510      	bpl.n	800287a <HAL_RCCEx_PeriphCLKConfig+0x3ee>
 8002858:	4a35      	ldr	r2, [pc, #212]	; (8002930 <HAL_RCCEx_PeriphCLKConfig+0x4a4>)
 800285a:	6fe1      	ldr	r1, [r4, #124]	; 0x7c
 800285c:	f8d2 3088 	ldr.w	r3, [r2, #136]	; 0x88
 8002860:	f1b1 6f00 	cmp.w	r1, #134217728	; 0x8000000
 8002864:	f023 6340 	bic.w	r3, r3, #201326592	; 0xc000000
 8002868:	ea43 0301 	orr.w	r3, r3, r1
 800286c:	f8c2 3088 	str.w	r3, [r2, #136]	; 0x88
 8002870:	d14c      	bne.n	800290c <HAL_RCCEx_PeriphCLKConfig+0x480>
 8002872:	68d3      	ldr	r3, [r2, #12]
 8002874:	f443 1380 	orr.w	r3, r3, #1048576	; 0x100000
 8002878:	60d3      	str	r3, [r2, #12]
 800287a:	6823      	ldr	r3, [r4, #0]
 800287c:	045e      	lsls	r6, r3, #17
 800287e:	d514      	bpl.n	80028aa <HAL_RCCEx_PeriphCLKConfig+0x41e>
 8002880:	492b      	ldr	r1, [pc, #172]	; (8002930 <HAL_RCCEx_PeriphCLKConfig+0x4a4>)
 8002882:	f8d4 2080 	ldr.w	r2, [r4, #128]	; 0x80
 8002886:	f8d1 3088 	ldr.w	r3, [r1, #136]	; 0x88
 800288a:	f1b2 5f80 	cmp.w	r2, #268435456	; 0x10000000
 800288e:	f023 5340 	bic.w	r3, r3, #805306368	; 0x30000000
 8002892:	ea43 0302 	orr.w	r3, r3, r2
 8002896:	f8c1 3088 	str.w	r3, [r1, #136]	; 0x88
 800289a:	d106      	bne.n	80028aa <HAL_RCCEx_PeriphCLKConfig+0x41e>
 800289c:	2102      	movs	r1, #2
 800289e:	1d20      	adds	r0, r4, #4
 80028a0:	f7ff fd1c 	bl	80022dc <RCCEx_PLLSAI1_Config>
 80028a4:	2800      	cmp	r0, #0
 80028a6:	bf18      	it	ne
 80028a8:	4605      	movne	r5, r0
 80028aa:	6822      	ldr	r2, [r4, #0]
 80028ac:	03d0      	lsls	r0, r2, #15
 80028ae:	d509      	bpl.n	80028c4 <HAL_RCCEx_PeriphCLKConfig+0x438>
 80028b0:	491f      	ldr	r1, [pc, #124]	; (8002930 <HAL_RCCEx_PeriphCLKConfig+0x4a4>)
 80028b2:	f8d4 0084 	ldr.w	r0, [r4, #132]	; 0x84
 80028b6:	f8d1 309c 	ldr.w	r3, [r1, #156]	; 0x9c
 80028ba:	f023 0304 	bic.w	r3, r3, #4
 80028be:	4303      	orrs	r3, r0
 80028c0:	f8c1 309c 	str.w	r3, [r1, #156]	; 0x9c
 80028c4:	0291      	lsls	r1, r2, #10
 80028c6:	d509      	bpl.n	80028dc <HAL_RCCEx_PeriphCLKConfig+0x450>
 80028c8:	4919      	ldr	r1, [pc, #100]	; (8002930 <HAL_RCCEx_PeriphCLKConfig+0x4a4>)
 80028ca:	f8d4 0088 	ldr.w	r0, [r4, #136]	; 0x88
 80028ce:	f8d1 309c 	ldr.w	r3, [r1, #156]	; 0x9c
 80028d2:	f023 0318 	bic.w	r3, r3, #24
 80028d6:	4303      	orrs	r3, r0
 80028d8:	f8c1 309c 	str.w	r3, [r1, #156]	; 0x9c
 80028dc:	01d3      	lsls	r3, r2, #7
 80028de:	d511      	bpl.n	8002904 <HAL_RCCEx_PeriphCLKConfig+0x478>
 80028e0:	4a13      	ldr	r2, [pc, #76]	; (8002930 <HAL_RCCEx_PeriphCLKConfig+0x4a4>)
 80028e2:	f8d4 108c 	ldr.w	r1, [r4, #140]	; 0x8c
 80028e6:	f8d2 309c 	ldr.w	r3, [r2, #156]	; 0x9c
 80028ea:	f5b1 1f00 	cmp.w	r1, #2097152	; 0x200000
 80028ee:	f423 1340 	bic.w	r3, r3, #3145728	; 0x300000
 80028f2:	ea43 0301 	orr.w	r3, r3, r1
 80028f6:	f8c2 309c 	str.w	r3, [r2, #156]	; 0x9c
 80028fa:	d103      	bne.n	8002904 <HAL_RCCEx_PeriphCLKConfig+0x478>
 80028fc:	68d3      	ldr	r3, [r2, #12]
 80028fe:	f443 1380 	orr.w	r3, r3, #1048576	; 0x100000
 8002902:	60d3      	str	r3, [r2, #12]
 8002904:	4628      	mov	r0, r5
 8002906:	b002      	add	sp, #8
 8002908:	e8bd 87f0 	ldmia.w	sp!, {r4, r5, r6, r7, r8, r9, sl, pc}
 800290c:	f1b1 6f80 	cmp.w	r1, #67108864	; 0x4000000
 8002910:	d1b3      	bne.n	800287a <HAL_RCCEx_PeriphCLKConfig+0x3ee>
 8002912:	2101      	movs	r1, #1
 8002914:	1d20      	adds	r0, r4, #4
 8002916:	f7ff fce1 	bl	80022dc <RCCEx_PLLSAI1_Config>
 800291a:	2800      	cmp	r0, #0
 800291c:	bf18      	it	ne
 800291e:	4605      	movne	r5, r0
 8002920:	e7ab      	b.n	800287a <HAL_RCCEx_PeriphCLKConfig+0x3ee>
 8002922:	f1b1 6f00 	cmp.w	r1, #134217728	; 0x8000000
 8002926:	d194      	bne.n	8002852 <HAL_RCCEx_PeriphCLKConfig+0x3c6>
 8002928:	68da      	ldr	r2, [r3, #12]
 800292a:	f442 1280 	orr.w	r2, r2, #1048576	; 0x100000
 800292e:	e707      	b.n	8002740 <HAL_RCCEx_PeriphCLKConfig+0x2b4>
 8002930:	40021000 	.word	0x40021000

08002934 <HAL_RCCEx_EnableMSIPLLMode>:
 8002934:	4a02      	ldr	r2, [pc, #8]	; (8002940 <HAL_RCCEx_EnableMSIPLLMode+0xc>)
 8002936:	6813      	ldr	r3, [r2, #0]
 8002938:	f043 0304 	orr.w	r3, r3, #4
 800293c:	6013      	str	r3, [r2, #0]
 800293e:	4770      	bx	lr
 8002940:	40021000 	.word	0x40021000

08002944 <HAL_SPI_Init>:
 8002944:	b570      	push	{r4, r5, r6, lr}
 8002946:	4604      	mov	r4, r0
 8002948:	2800      	cmp	r0, #0
 800294a:	d05f      	beq.n	8002a0c <HAL_SPI_Init+0xc8>
 800294c:	6a43      	ldr	r3, [r0, #36]	; 0x24
 800294e:	2b00      	cmp	r3, #0
 8002950:	d158      	bne.n	8002a04 <HAL_SPI_Init+0xc0>
 8002952:	6842      	ldr	r2, [r0, #4]
 8002954:	f5b2 7f82 	cmp.w	r2, #260	; 0x104
 8002958:	d000      	beq.n	800295c <HAL_SPI_Init+0x18>
 800295a:	61c3      	str	r3, [r0, #28]
 800295c:	2300      	movs	r3, #0
 800295e:	62a3      	str	r3, [r4, #40]	; 0x28
 8002960:	f894 305d 	ldrb.w	r3, [r4, #93]	; 0x5d
 8002964:	f003 02ff 	and.w	r2, r3, #255	; 0xff
 8002968:	b923      	cbnz	r3, 8002974 <HAL_SPI_Init+0x30>
 800296a:	4620      	mov	r0, r4
 800296c:	f884 205c 	strb.w	r2, [r4, #92]	; 0x5c
 8002970:	f7fd fda6 	bl	80004c0 <HAL_SPI_MspInit>
 8002974:	2302      	movs	r3, #2
 8002976:	6825      	ldr	r5, [r4, #0]
 8002978:	f884 305d 	strb.w	r3, [r4, #93]	; 0x5d
 800297c:	682b      	ldr	r3, [r5, #0]
 800297e:	68e1      	ldr	r1, [r4, #12]
 8002980:	f023 0340 	bic.w	r3, r3, #64	; 0x40
 8002984:	f5b1 6fe0 	cmp.w	r1, #1792	; 0x700
 8002988:	602b      	str	r3, [r5, #0]
 800298a:	f04f 0300 	mov.w	r3, #0
 800298e:	d83f      	bhi.n	8002a10 <HAL_SPI_Init+0xcc>
 8002990:	f44f 5080 	mov.w	r0, #4096	; 0x1000
 8002994:	d000      	beq.n	8002998 <HAL_SPI_Init+0x54>
 8002996:	62a3      	str	r3, [r4, #40]	; 0x28
 8002998:	6863      	ldr	r3, [r4, #4]
 800299a:	68a6      	ldr	r6, [r4, #8]
 800299c:	f403 7382 	and.w	r3, r3, #260	; 0x104
 80029a0:	f406 4604 	and.w	r6, r6, #33792	; 0x8400
 80029a4:	4333      	orrs	r3, r6
 80029a6:	6926      	ldr	r6, [r4, #16]
 80029a8:	69a2      	ldr	r2, [r4, #24]
 80029aa:	f006 0602 	and.w	r6, r6, #2
 80029ae:	4333      	orrs	r3, r6
 80029b0:	6966      	ldr	r6, [r4, #20]
 80029b2:	f401 6170 	and.w	r1, r1, #3840	; 0xf00
 80029b6:	f006 0601 	and.w	r6, r6, #1
 80029ba:	4333      	orrs	r3, r6
 80029bc:	f402 7600 	and.w	r6, r2, #512	; 0x200
 80029c0:	4333      	orrs	r3, r6
 80029c2:	69e6      	ldr	r6, [r4, #28]
 80029c4:	0c12      	lsrs	r2, r2, #16
 80029c6:	f006 0638 	and.w	r6, r6, #56	; 0x38
 80029ca:	4333      	orrs	r3, r6
 80029cc:	6a26      	ldr	r6, [r4, #32]
 80029ce:	f002 0204 	and.w	r2, r2, #4
 80029d2:	f006 0680 	and.w	r6, r6, #128	; 0x80
 80029d6:	4333      	orrs	r3, r6
 80029d8:	6aa6      	ldr	r6, [r4, #40]	; 0x28
 80029da:	f406 5600 	and.w	r6, r6, #8192	; 0x2000
 80029de:	4333      	orrs	r3, r6
 80029e0:	602b      	str	r3, [r5, #0]
 80029e2:	6b66      	ldr	r6, [r4, #52]	; 0x34
 80029e4:	6a63      	ldr	r3, [r4, #36]	; 0x24
 80029e6:	f006 0608 	and.w	r6, r6, #8
 80029ea:	f003 0310 	and.w	r3, r3, #16
 80029ee:	4333      	orrs	r3, r6
 80029f0:	4319      	orrs	r1, r3
 80029f2:	430a      	orrs	r2, r1
 80029f4:	4310      	orrs	r0, r2
 80029f6:	6068      	str	r0, [r5, #4]
 80029f8:	2301      	movs	r3, #1
 80029fa:	2000      	movs	r0, #0
 80029fc:	6620      	str	r0, [r4, #96]	; 0x60
 80029fe:	f884 305d 	strb.w	r3, [r4, #93]	; 0x5d
 8002a02:	bd70      	pop	{r4, r5, r6, pc}
 8002a04:	2300      	movs	r3, #0
 8002a06:	e9c0 3304 	strd	r3, r3, [r0, #16]
 8002a0a:	e7a7      	b.n	800295c <HAL_SPI_Init+0x18>
 8002a0c:	2001      	movs	r0, #1
 8002a0e:	e7f8      	b.n	8002a02 <HAL_SPI_Init+0xbe>
 8002a10:	4618      	mov	r0, r3
 8002a12:	f5b1 6f70 	cmp.w	r1, #3840	; 0xf00
 8002a16:	e7bd      	b.n	8002994 <HAL_SPI_Init+0x50>

08002a18 <USB_EnableGlobalInt>:
 8002a18:	2300      	movs	r3, #0
 8002a1a:	f64b 7280 	movw	r2, #49024	; 0xbf80
 8002a1e:	f8a0 3044 	strh.w	r3, [r0, #68]	; 0x44
 8002a22:	f8a0 2040 	strh.w	r2, [r0, #64]	; 0x40
 8002a26:	4618      	mov	r0, r3
 8002a28:	4770      	bx	lr

08002a2a <USB_DisableGlobalInt>:
 8002a2a:	f8b0 3040 	ldrh.w	r3, [r0, #64]	; 0x40
 8002a2e:	f423 537e 	bic.w	r3, r3, #16256	; 0x3f80
 8002a32:	045b      	lsls	r3, r3, #17
 8002a34:	0c5b      	lsrs	r3, r3, #17
 8002a36:	f8a0 3040 	strh.w	r3, [r0, #64]	; 0x40
 8002a3a:	2000      	movs	r0, #0
 8002a3c:	4770      	bx	lr

08002a3e <USB_DevInit>:
 8002a3e:	b084      	sub	sp, #16
 8002a40:	b510      	push	{r4, lr}
 8002a42:	ac03      	add	r4, sp, #12
 8002a44:	e884 000e 	stmia.w	r4, {r1, r2, r3}
 8002a48:	e8bd 4010 	ldmia.w	sp!, {r4, lr}
 8002a4c:	2301      	movs	r3, #1
 8002a4e:	f8a0 3040 	strh.w	r3, [r0, #64]	; 0x40
 8002a52:	2300      	movs	r3, #0
 8002a54:	b004      	add	sp, #16
 8002a56:	f8a0 3040 	strh.w	r3, [r0, #64]	; 0x40
 8002a5a:	f8a0 3044 	strh.w	r3, [r0, #68]	; 0x44
 8002a5e:	f8a0 3050 	strh.w	r3, [r0, #80]	; 0x50
 8002a62:	4618      	mov	r0, r3
 8002a64:	4770      	bx	lr
	...

08002a68 <USB_ActivateEndpoint>:
 8002a68:	b5f0      	push	{r4, r5, r6, r7, lr}
 8002a6a:	780d      	ldrb	r5, [r1, #0]
 8002a6c:	78ca      	ldrb	r2, [r1, #3]
 8002a6e:	f830 3025 	ldrh.w	r3, [r0, r5, lsl #2]
 8002a72:	f423 43ec 	bic.w	r3, r3, #30208	; 0x7600
 8002a76:	f023 0370 	bic.w	r3, r3, #112	; 0x70
 8002a7a:	041b      	lsls	r3, r3, #16
 8002a7c:	0c1b      	lsrs	r3, r3, #16
 8002a7e:	2a03      	cmp	r2, #3
 8002a80:	d851      	bhi.n	8002b26 <USB_ActivateEndpoint+0xbe>
 8002a82:	e8df f002 	tbb	[pc, r2]
 8002a86:	4d02      	.short	0x4d02
 8002a88:	494b      	.short	0x494b
 8002a8a:	f443 7300 	orr.w	r3, r3, #512	; 0x200
 8002a8e:	f248 0480 	movw	r4, #32896	; 0x8080
 8002a92:	4323      	orrs	r3, r4
 8002a94:	f820 3025 	strh.w	r3, [r0, r5, lsl #2]
 8002a98:	780f      	ldrb	r7, [r1, #0]
 8002a9a:	4d9e      	ldr	r5, [pc, #632]	; (8002d14 <USB_ActivateEndpoint+0x2ac>)
 8002a9c:	f830 3027 	ldrh.w	r3, [r0, r7, lsl #2]
 8002aa0:	b29b      	uxth	r3, r3
 8002aa2:	402b      	ands	r3, r5
 8002aa4:	433b      	orrs	r3, r7
 8002aa6:	4323      	orrs	r3, r4
 8002aa8:	f820 3027 	strh.w	r3, [r0, r7, lsl #2]
 8002aac:	7b0b      	ldrb	r3, [r1, #12]
 8002aae:	780c      	ldrb	r4, [r1, #0]
 8002ab0:	2b00      	cmp	r3, #0
 8002ab2:	f040 808b 	bne.w	8002bcc <USB_ActivateEndpoint+0x164>
 8002ab6:	2308      	movs	r3, #8
 8002ab8:	88ce      	ldrh	r6, [r1, #6]
 8002aba:	784f      	ldrb	r7, [r1, #1]
 8002abc:	0876      	lsrs	r6, r6, #1
 8002abe:	fb13 0404 	smlabb	r4, r3, r4, r0
 8002ac2:	0076      	lsls	r6, r6, #1
 8002ac4:	b38f      	cbz	r7, 8002b2a <USB_ActivateEndpoint+0xc2>
 8002ac6:	f8b0 3050 	ldrh.w	r3, [r0, #80]	; 0x50
 8002aca:	fa14 f483 	uxtah	r4, r4, r3
 8002ace:	f8a4 6400 	strh.w	r6, [r4, #1024]	; 0x400
 8002ad2:	780b      	ldrb	r3, [r1, #0]
 8002ad4:	f830 4023 	ldrh.w	r4, [r0, r3, lsl #2]
 8002ad8:	0667      	lsls	r7, r4, #25
 8002ada:	d509      	bpl.n	8002af0 <USB_ActivateEndpoint+0x88>
 8002adc:	f830 4023 	ldrh.w	r4, [r0, r3, lsl #2]
 8002ae0:	b2a4      	uxth	r4, r4
 8002ae2:	402c      	ands	r4, r5
 8002ae4:	f444 4400 	orr.w	r4, r4, #32768	; 0x8000
 8002ae8:	f044 04c0 	orr.w	r4, r4, #192	; 0xc0
 8002aec:	f820 4023 	strh.w	r4, [r0, r3, lsl #2]
 8002af0:	78cb      	ldrb	r3, [r1, #3]
 8002af2:	780c      	ldrb	r4, [r1, #0]
 8002af4:	2b01      	cmp	r3, #1
 8002af6:	f830 3024 	ldrh.w	r3, [r0, r4, lsl #2]
 8002afa:	4987      	ldr	r1, [pc, #540]	; (8002d18 <USB_ActivateEndpoint+0x2b0>)
 8002afc:	b29b      	uxth	r3, r3
 8002afe:	ea03 0301 	and.w	r3, r3, r1
 8002b02:	bf18      	it	ne
 8002b04:	f083 0320 	eorne.w	r3, r3, #32
 8002b08:	f443 4300 	orr.w	r3, r3, #32768	; 0x8000
 8002b0c:	f043 0380 	orr.w	r3, r3, #128	; 0x80
 8002b10:	f820 3024 	strh.w	r3, [r0, r4, lsl #2]
 8002b14:	4610      	mov	r0, r2
 8002b16:	bdf0      	pop	{r4, r5, r6, r7, pc}
 8002b18:	f443 63c0 	orr.w	r3, r3, #1536	; 0x600
 8002b1c:	2200      	movs	r2, #0
 8002b1e:	e7b6      	b.n	8002a8e <USB_ActivateEndpoint+0x26>
 8002b20:	f443 6380 	orr.w	r3, r3, #1024	; 0x400
 8002b24:	e7fa      	b.n	8002b1c <USB_ActivateEndpoint+0xb4>
 8002b26:	2201      	movs	r2, #1
 8002b28:	e7b1      	b.n	8002a8e <USB_ActivateEndpoint+0x26>
 8002b2a:	f8b0 5050 	ldrh.w	r5, [r0, #80]	; 0x50
 8002b2e:	fa14 f485 	uxtah	r4, r4, r5
 8002b32:	f8a4 6404 	strh.w	r6, [r4, #1028]	; 0x404
 8002b36:	780d      	ldrb	r5, [r1, #0]
 8002b38:	f8b0 4050 	ldrh.w	r4, [r0, #80]	; 0x50
 8002b3c:	fb13 0305 	smlabb	r3, r3, r5, r0
 8002b40:	690e      	ldr	r6, [r1, #16]
 8002b42:	b2a4      	uxth	r4, r4
 8002b44:	f203 4306 	addw	r3, r3, #1030	; 0x406
 8002b48:	bb7e      	cbnz	r6, 8002baa <USB_ActivateEndpoint+0x142>
 8002b4a:	5b1d      	ldrh	r5, [r3, r4]
 8002b4c:	f425 45f8 	bic.w	r5, r5, #31744	; 0x7c00
 8002b50:	042d      	lsls	r5, r5, #16
 8002b52:	0c2d      	lsrs	r5, r5, #16
 8002b54:	531d      	strh	r5, [r3, r4]
 8002b56:	5b1d      	ldrh	r5, [r3, r4]
 8002b58:	ea6f 4545 	mvn.w	r5, r5, lsl #17
 8002b5c:	ea6f 4555 	mvn.w	r5, r5, lsr #17
 8002b60:	b2ad      	uxth	r5, r5
 8002b62:	531d      	strh	r5, [r3, r4]
 8002b64:	780c      	ldrb	r4, [r1, #0]
 8002b66:	f830 3024 	ldrh.w	r3, [r0, r4, lsl #2]
 8002b6a:	045f      	lsls	r7, r3, #17
 8002b6c:	d50d      	bpl.n	8002b8a <USB_ActivateEndpoint+0x122>
 8002b6e:	f830 3024 	ldrh.w	r3, [r0, r4, lsl #2]
 8002b72:	f423 43e0 	bic.w	r3, r3, #28672	; 0x7000
 8002b76:	f023 0370 	bic.w	r3, r3, #112	; 0x70
 8002b7a:	041b      	lsls	r3, r3, #16
 8002b7c:	0c1b      	lsrs	r3, r3, #16
 8002b7e:	f443 4340 	orr.w	r3, r3, #49152	; 0xc000
 8002b82:	f043 0380 	orr.w	r3, r3, #128	; 0x80
 8002b86:	f820 3024 	strh.w	r3, [r0, r4, lsl #2]
 8002b8a:	7809      	ldrb	r1, [r1, #0]
 8002b8c:	f830 3021 	ldrh.w	r3, [r0, r1, lsl #2]
 8002b90:	f423 4380 	bic.w	r3, r3, #16384	; 0x4000
 8002b94:	f023 0370 	bic.w	r3, r3, #112	; 0x70
 8002b98:	041b      	lsls	r3, r3, #16
 8002b9a:	0c1b      	lsrs	r3, r3, #16
 8002b9c:	f483 5340 	eor.w	r3, r3, #12288	; 0x3000
 8002ba0:	f443 4300 	orr.w	r3, r3, #32768	; 0x8000
 8002ba4:	f043 0380 	orr.w	r3, r3, #128	; 0x80
 8002ba8:	e074      	b.n	8002c94 <USB_ActivateEndpoint+0x22c>
 8002baa:	2e3e      	cmp	r6, #62	; 0x3e
 8002bac:	d805      	bhi.n	8002bba <USB_ActivateEndpoint+0x152>
 8002bae:	0875      	lsrs	r5, r6, #1
 8002bb0:	07f6      	lsls	r6, r6, #31
 8002bb2:	bf48      	it	mi
 8002bb4:	3501      	addmi	r5, #1
 8002bb6:	02ad      	lsls	r5, r5, #10
 8002bb8:	e7d2      	b.n	8002b60 <USB_ActivateEndpoint+0xf8>
 8002bba:	0977      	lsrs	r7, r6, #5
 8002bbc:	06f5      	lsls	r5, r6, #27
 8002bbe:	4d57      	ldr	r5, [pc, #348]	; (8002d1c <USB_ActivateEndpoint+0x2b4>)
 8002bc0:	bf08      	it	eq
 8002bc2:	f107 37ff 	addeq.w	r7, r7, #4294967295
 8002bc6:	ea45 2587 	orr.w	r5, r5, r7, lsl #10
 8002bca:	e7c9      	b.n	8002b60 <USB_ActivateEndpoint+0xf8>
 8002bcc:	b224      	sxth	r4, r4
 8002bce:	f830 3024 	ldrh.w	r3, [r0, r4, lsl #2]
 8002bd2:	b29b      	uxth	r3, r3
 8002bd4:	402b      	ands	r3, r5
 8002bd6:	f443 4301 	orr.w	r3, r3, #33024	; 0x8100
 8002bda:	f043 0380 	orr.w	r3, r3, #128	; 0x80
 8002bde:	f820 3024 	strh.w	r3, [r0, r4, lsl #2]
 8002be2:	2308      	movs	r3, #8
 8002be4:	780c      	ldrb	r4, [r1, #0]
 8002be6:	890e      	ldrh	r6, [r1, #8]
 8002be8:	fb13 0404 	smlabb	r4, r3, r4, r0
 8002bec:	f8b0 7050 	ldrh.w	r7, [r0, #80]	; 0x50
 8002bf0:	0876      	lsrs	r6, r6, #1
 8002bf2:	f504 6480 	add.w	r4, r4, #1024	; 0x400
 8002bf6:	0076      	lsls	r6, r6, #1
 8002bf8:	b2bf      	uxth	r7, r7
 8002bfa:	53e6      	strh	r6, [r4, r7]
 8002bfc:	780c      	ldrb	r4, [r1, #0]
 8002bfe:	f8b0 6050 	ldrh.w	r6, [r0, #80]	; 0x50
 8002c02:	fb13 0304 	smlabb	r3, r3, r4, r0
 8002c06:	894c      	ldrh	r4, [r1, #10]
 8002c08:	f203 4304 	addw	r3, r3, #1028	; 0x404
 8002c0c:	0864      	lsrs	r4, r4, #1
 8002c0e:	0064      	lsls	r4, r4, #1
 8002c10:	b2b6      	uxth	r6, r6
 8002c12:	539c      	strh	r4, [r3, r6]
 8002c14:	780b      	ldrb	r3, [r1, #0]
 8002c16:	784c      	ldrb	r4, [r1, #1]
 8002c18:	b21b      	sxth	r3, r3
 8002c1a:	2c00      	cmp	r4, #0
 8002c1c:	d13d      	bne.n	8002c9a <USB_ActivateEndpoint+0x232>
 8002c1e:	f830 4023 	ldrh.w	r4, [r0, r3, lsl #2]
 8002c22:	0466      	lsls	r6, r4, #17
 8002c24:	d509      	bpl.n	8002c3a <USB_ActivateEndpoint+0x1d2>
 8002c26:	f830 4023 	ldrh.w	r4, [r0, r3, lsl #2]
 8002c2a:	b2a4      	uxth	r4, r4
 8002c2c:	402c      	ands	r4, r5
 8002c2e:	f444 4440 	orr.w	r4, r4, #49152	; 0xc000
 8002c32:	f044 0480 	orr.w	r4, r4, #128	; 0x80
 8002c36:	f820 4023 	strh.w	r4, [r0, r3, lsl #2]
 8002c3a:	780c      	ldrb	r4, [r1, #0]
 8002c3c:	f830 3024 	ldrh.w	r3, [r0, r4, lsl #2]
 8002c40:	065d      	lsls	r5, r3, #25
 8002c42:	d50d      	bpl.n	8002c60 <USB_ActivateEndpoint+0x1f8>
 8002c44:	f830 3024 	ldrh.w	r3, [r0, r4, lsl #2]
 8002c48:	f423 43e0 	bic.w	r3, r3, #28672	; 0x7000
 8002c4c:	f023 0370 	bic.w	r3, r3, #112	; 0x70
 8002c50:	041b      	lsls	r3, r3, #16
 8002c52:	0c1b      	lsrs	r3, r3, #16
 8002c54:	f443 4300 	orr.w	r3, r3, #32768	; 0x8000
 8002c58:	f043 03c0 	orr.w	r3, r3, #192	; 0xc0
 8002c5c:	f820 3024 	strh.w	r3, [r0, r4, lsl #2]
 8002c60:	f248 0480 	movw	r4, #32896	; 0x8080
 8002c64:	780d      	ldrb	r5, [r1, #0]
 8002c66:	f830 3025 	ldrh.w	r3, [r0, r5, lsl #2]
 8002c6a:	f423 4380 	bic.w	r3, r3, #16384	; 0x4000
 8002c6e:	f023 0370 	bic.w	r3, r3, #112	; 0x70
 8002c72:	041b      	lsls	r3, r3, #16
 8002c74:	0c1b      	lsrs	r3, r3, #16
 8002c76:	f483 5340 	eor.w	r3, r3, #12288	; 0x3000
 8002c7a:	4323      	orrs	r3, r4
 8002c7c:	f820 3025 	strh.w	r3, [r0, r5, lsl #2]
 8002c80:	7809      	ldrb	r1, [r1, #0]
 8002c82:	f830 3021 	ldrh.w	r3, [r0, r1, lsl #2]
 8002c86:	f423 43e0 	bic.w	r3, r3, #28672	; 0x7000
 8002c8a:	f023 0340 	bic.w	r3, r3, #64	; 0x40
 8002c8e:	041b      	lsls	r3, r3, #16
 8002c90:	0c1b      	lsrs	r3, r3, #16
 8002c92:	4323      	orrs	r3, r4
 8002c94:	f820 3021 	strh.w	r3, [r0, r1, lsl #2]
 8002c98:	e73c      	b.n	8002b14 <USB_ActivateEndpoint+0xac>
 8002c9a:	f830 4023 	ldrh.w	r4, [r0, r3, lsl #2]
 8002c9e:	0464      	lsls	r4, r4, #17
 8002ca0:	d509      	bpl.n	8002cb6 <USB_ActivateEndpoint+0x24e>
 8002ca2:	f830 4023 	ldrh.w	r4, [r0, r3, lsl #2]
 8002ca6:	b2a4      	uxth	r4, r4
 8002ca8:	402c      	ands	r4, r5
 8002caa:	f444 4440 	orr.w	r4, r4, #49152	; 0xc000
 8002cae:	f044 0480 	orr.w	r4, r4, #128	; 0x80
 8002cb2:	f820 4023 	strh.w	r4, [r0, r3, lsl #2]
 8002cb6:	780c      	ldrb	r4, [r1, #0]
 8002cb8:	f830 3024 	ldrh.w	r3, [r0, r4, lsl #2]
 8002cbc:	065b      	lsls	r3, r3, #25
 8002cbe:	d50d      	bpl.n	8002cdc <USB_ActivateEndpoint+0x274>
 8002cc0:	f830 3024 	ldrh.w	r3, [r0, r4, lsl #2]
 8002cc4:	f423 43e0 	bic.w	r3, r3, #28672	; 0x7000
 8002cc8:	f023 0370 	bic.w	r3, r3, #112	; 0x70
 8002ccc:	041b      	lsls	r3, r3, #16
 8002cce:	0c1b      	lsrs	r3, r3, #16
 8002cd0:	f443 4300 	orr.w	r3, r3, #32768	; 0x8000
 8002cd4:	f043 03c0 	orr.w	r3, r3, #192	; 0xc0
 8002cd8:	f820 3024 	strh.w	r3, [r0, r4, lsl #2]
 8002cdc:	78cb      	ldrb	r3, [r1, #3]
 8002cde:	780c      	ldrb	r4, [r1, #0]
 8002ce0:	2b01      	cmp	r3, #1
 8002ce2:	f830 3024 	ldrh.w	r3, [r0, r4, lsl #2]
 8002ce6:	4d0c      	ldr	r5, [pc, #48]	; (8002d18 <USB_ActivateEndpoint+0x2b0>)
 8002ce8:	b29b      	uxth	r3, r3
 8002cea:	ea03 0305 	and.w	r3, r3, r5
 8002cee:	bf18      	it	ne
 8002cf0:	f083 0320 	eorne.w	r3, r3, #32
 8002cf4:	f443 4300 	orr.w	r3, r3, #32768	; 0x8000
 8002cf8:	f043 0380 	orr.w	r3, r3, #128	; 0x80
 8002cfc:	f820 3024 	strh.w	r3, [r0, r4, lsl #2]
 8002d00:	7809      	ldrb	r1, [r1, #0]
 8002d02:	f830 3021 	ldrh.w	r3, [r0, r1, lsl #2]
 8002d06:	f423 4380 	bic.w	r3, r3, #16384	; 0x4000
 8002d0a:	f023 0370 	bic.w	r3, r3, #112	; 0x70
 8002d0e:	041b      	lsls	r3, r3, #16
 8002d10:	0c1b      	lsrs	r3, r3, #16
 8002d12:	e745      	b.n	8002ba0 <USB_ActivateEndpoint+0x138>
 8002d14:	ffff8f8f 	.word	0xffff8f8f
 8002d18:	ffff8fbf 	.word	0xffff8fbf
 8002d1c:	ffff8000 	.word	0xffff8000

08002d20 <USB_DeactivateEndpoint>:
 8002d20:	b510      	push	{r4, lr}
 8002d22:	7b0c      	ldrb	r4, [r1, #12]
 8002d24:	784b      	ldrb	r3, [r1, #1]
 8002d26:	780a      	ldrb	r2, [r1, #0]
 8002d28:	2c00      	cmp	r4, #0
 8002d2a:	d13d      	bne.n	8002da8 <USB_DeactivateEndpoint+0x88>
 8002d2c:	b313      	cbz	r3, 8002d74 <USB_DeactivateEndpoint+0x54>
 8002d2e:	f830 3022 	ldrh.w	r3, [r0, r2, lsl #2]
 8002d32:	065c      	lsls	r4, r3, #25
 8002d34:	d50d      	bpl.n	8002d52 <USB_DeactivateEndpoint+0x32>
 8002d36:	f830 3022 	ldrh.w	r3, [r0, r2, lsl #2]
 8002d3a:	f423 43e0 	bic.w	r3, r3, #28672	; 0x7000
 8002d3e:	f023 0370 	bic.w	r3, r3, #112	; 0x70
 8002d42:	041b      	lsls	r3, r3, #16
 8002d44:	0c1b      	lsrs	r3, r3, #16
 8002d46:	f443 4300 	orr.w	r3, r3, #32768	; 0x8000
 8002d4a:	f043 03c0 	orr.w	r3, r3, #192	; 0xc0
 8002d4e:	f820 3022 	strh.w	r3, [r0, r2, lsl #2]
 8002d52:	780a      	ldrb	r2, [r1, #0]
 8002d54:	f830 3022 	ldrh.w	r3, [r0, r2, lsl #2]
 8002d58:	f423 43e0 	bic.w	r3, r3, #28672	; 0x7000
 8002d5c:	f023 0340 	bic.w	r3, r3, #64	; 0x40
 8002d60:	041b      	lsls	r3, r3, #16
 8002d62:	0c1b      	lsrs	r3, r3, #16
 8002d64:	f443 4300 	orr.w	r3, r3, #32768	; 0x8000
 8002d68:	f043 0380 	orr.w	r3, r3, #128	; 0x80
 8002d6c:	f820 3022 	strh.w	r3, [r0, r2, lsl #2]
 8002d70:	2000      	movs	r0, #0
 8002d72:	bd10      	pop	{r4, pc}
 8002d74:	f830 3022 	ldrh.w	r3, [r0, r2, lsl #2]
 8002d78:	045b      	lsls	r3, r3, #17
 8002d7a:	d50d      	bpl.n	8002d98 <USB_DeactivateEndpoint+0x78>
 8002d7c:	f830 3022 	ldrh.w	r3, [r0, r2, lsl #2]
 8002d80:	f423 43e0 	bic.w	r3, r3, #28672	; 0x7000
 8002d84:	f023 0370 	bic.w	r3, r3, #112	; 0x70
 8002d88:	041b      	lsls	r3, r3, #16
 8002d8a:	0c1b      	lsrs	r3, r3, #16
 8002d8c:	f443 4340 	orr.w	r3, r3, #49152	; 0xc000
 8002d90:	f043 0380 	orr.w	r3, r3, #128	; 0x80
 8002d94:	f820 3022 	strh.w	r3, [r0, r2, lsl #2]
 8002d98:	780a      	ldrb	r2, [r1, #0]
 8002d9a:	f830 3022 	ldrh.w	r3, [r0, r2, lsl #2]
 8002d9e:	f423 4380 	bic.w	r3, r3, #16384	; 0x4000
 8002da2:	f023 0370 	bic.w	r3, r3, #112	; 0x70
 8002da6:	e7db      	b.n	8002d60 <USB_DeactivateEndpoint+0x40>
 8002da8:	2b00      	cmp	r3, #0
 8002daa:	d14e      	bne.n	8002e4a <USB_DeactivateEndpoint+0x12a>
 8002dac:	f830 3022 	ldrh.w	r3, [r0, r2, lsl #2]
 8002db0:	045c      	lsls	r4, r3, #17
 8002db2:	d50d      	bpl.n	8002dd0 <USB_DeactivateEndpoint+0xb0>
 8002db4:	f830 3022 	ldrh.w	r3, [r0, r2, lsl #2]
 8002db8:	f423 43e0 	bic.w	r3, r3, #28672	; 0x7000
 8002dbc:	f023 0370 	bic.w	r3, r3, #112	; 0x70
 8002dc0:	041b      	lsls	r3, r3, #16
 8002dc2:	0c1b      	lsrs	r3, r3, #16
 8002dc4:	f443 4340 	orr.w	r3, r3, #49152	; 0xc000
 8002dc8:	f043 0380 	orr.w	r3, r3, #128	; 0x80
 8002dcc:	f820 3022 	strh.w	r3, [r0, r2, lsl #2]
 8002dd0:	780a      	ldrb	r2, [r1, #0]
 8002dd2:	f830 3022 	ldrh.w	r3, [r0, r2, lsl #2]
 8002dd6:	065b      	lsls	r3, r3, #25
 8002dd8:	d50d      	bpl.n	8002df6 <USB_DeactivateEndpoint+0xd6>
 8002dda:	f830 3022 	ldrh.w	r3, [r0, r2, lsl #2]
 8002dde:	f423 43e0 	bic.w	r3, r3, #28672	; 0x7000
 8002de2:	f023 0370 	bic.w	r3, r3, #112	; 0x70
 8002de6:	041b      	lsls	r3, r3, #16
 8002de8:	0c1b      	lsrs	r3, r3, #16
 8002dea:	f443 4300 	orr.w	r3, r3, #32768	; 0x8000
 8002dee:	f043 03c0 	orr.w	r3, r3, #192	; 0xc0
 8002df2:	f820 3022 	strh.w	r3, [r0, r2, lsl #2]
 8002df6:	780a      	ldrb	r2, [r1, #0]
 8002df8:	f830 3022 	ldrh.w	r3, [r0, r2, lsl #2]
 8002dfc:	f423 43e0 	bic.w	r3, r3, #28672	; 0x7000
 8002e00:	f023 0370 	bic.w	r3, r3, #112	; 0x70
 8002e04:	041b      	lsls	r3, r3, #16
 8002e06:	0c1b      	lsrs	r3, r3, #16
 8002e08:	f443 4300 	orr.w	r3, r3, #32768	; 0x8000
 8002e0c:	f043 03c0 	orr.w	r3, r3, #192	; 0xc0
 8002e10:	f820 3022 	strh.w	r3, [r0, r2, lsl #2]
 8002e14:	f248 0280 	movw	r2, #32896	; 0x8080
 8002e18:	780c      	ldrb	r4, [r1, #0]
 8002e1a:	f830 3024 	ldrh.w	r3, [r0, r4, lsl #2]
 8002e1e:	f423 4380 	bic.w	r3, r3, #16384	; 0x4000
 8002e22:	f023 0370 	bic.w	r3, r3, #112	; 0x70
 8002e26:	041b      	lsls	r3, r3, #16
 8002e28:	0c1b      	lsrs	r3, r3, #16
 8002e2a:	4313      	orrs	r3, r2
 8002e2c:	f820 3024 	strh.w	r3, [r0, r4, lsl #2]
 8002e30:	7809      	ldrb	r1, [r1, #0]
 8002e32:	f830 3021 	ldrh.w	r3, [r0, r1, lsl #2]
 8002e36:	f423 43e0 	bic.w	r3, r3, #28672	; 0x7000
 8002e3a:	f023 0340 	bic.w	r3, r3, #64	; 0x40
 8002e3e:	041b      	lsls	r3, r3, #16
 8002e40:	0c1b      	lsrs	r3, r3, #16
 8002e42:	4313      	orrs	r3, r2
 8002e44:	f820 3021 	strh.w	r3, [r0, r1, lsl #2]
 8002e48:	e792      	b.n	8002d70 <USB_DeactivateEndpoint+0x50>
 8002e4a:	f830 3022 	ldrh.w	r3, [r0, r2, lsl #2]
 8002e4e:	045c      	lsls	r4, r3, #17
 8002e50:	d50d      	bpl.n	8002e6e <USB_DeactivateEndpoint+0x14e>
 8002e52:	f830 3022 	ldrh.w	r3, [r0, r2, lsl #2]
 8002e56:	f423 43e0 	bic.w	r3, r3, #28672	; 0x7000
 8002e5a:	f023 0370 	bic.w	r3, r3, #112	; 0x70
 8002e5e:	041b      	lsls	r3, r3, #16
 8002e60:	0c1b      	lsrs	r3, r3, #16
 8002e62:	f443 4340 	orr.w	r3, r3, #49152	; 0xc000
 8002e66:	f043 0380 	orr.w	r3, r3, #128	; 0x80
 8002e6a:	f820 3022 	strh.w	r3, [r0, r2, lsl #2]
 8002e6e:	780a      	ldrb	r2, [r1, #0]
 8002e70:	f830 3022 	ldrh.w	r3, [r0, r2, lsl #2]
 8002e74:	065b      	lsls	r3, r3, #25
 8002e76:	d50d      	bpl.n	8002e94 <USB_DeactivateEndpoint+0x174>
 8002e78:	f830 3022 	ldrh.w	r3, [r0, r2, lsl #2]
 8002e7c:	f423 43e0 	bic.w	r3, r3, #28672	; 0x7000
 8002e80:	f023 0370 	bic.w	r3, r3, #112	; 0x70
 8002e84:	041b      	lsls	r3, r3, #16
 8002e86:	0c1b      	lsrs	r3, r3, #16
 8002e88:	f443 4300 	orr.w	r3, r3, #32768	; 0x8000
 8002e8c:	f043 03c0 	orr.w	r3, r3, #192	; 0xc0
 8002e90:	f820 3022 	strh.w	r3, [r0, r2, lsl #2]
 8002e94:	780a      	ldrb	r2, [r1, #0]
 8002e96:	f830 3022 	ldrh.w	r3, [r0, r2, lsl #2]
 8002e9a:	f423 43e0 	bic.w	r3, r3, #28672	; 0x7000
 8002e9e:	f023 0370 	bic.w	r3, r3, #112	; 0x70
 8002ea2:	041b      	lsls	r3, r3, #16
 8002ea4:	0c1b      	lsrs	r3, r3, #16
 8002ea6:	f443 4340 	orr.w	r3, r3, #49152	; 0xc000
 8002eaa:	f043 0380 	orr.w	r3, r3, #128	; 0x80
 8002eae:	f820 3022 	strh.w	r3, [r0, r2, lsl #2]
 8002eb2:	f248 0280 	movw	r2, #32896	; 0x8080
 8002eb6:	780c      	ldrb	r4, [r1, #0]
 8002eb8:	f830 3024 	ldrh.w	r3, [r0, r4, lsl #2]
 8002ebc:	f423 43e0 	bic.w	r3, r3, #28672	; 0x7000
 8002ec0:	f023 0340 	bic.w	r3, r3, #64	; 0x40
 8002ec4:	041b      	lsls	r3, r3, #16
 8002ec6:	0c1b      	lsrs	r3, r3, #16
 8002ec8:	4313      	orrs	r3, r2
 8002eca:	f820 3024 	strh.w	r3, [r0, r4, lsl #2]
 8002ece:	7809      	ldrb	r1, [r1, #0]
 8002ed0:	f830 3021 	ldrh.w	r3, [r0, r1, lsl #2]
 8002ed4:	f423 4380 	bic.w	r3, r3, #16384	; 0x4000
 8002ed8:	f023 0370 	bic.w	r3, r3, #112	; 0x70
 8002edc:	e7af      	b.n	8002e3e <USB_DeactivateEndpoint+0x11e>

08002ede <USB_EPSetStall>:
 8002ede:	784b      	ldrb	r3, [r1, #1]
 8002ee0:	780a      	ldrb	r2, [r1, #0]
 8002ee2:	b18b      	cbz	r3, 8002f08 <USB_EPSetStall+0x2a>
 8002ee4:	f830 3022 	ldrh.w	r3, [r0, r2, lsl #2]
 8002ee8:	f423 43e0 	bic.w	r3, r3, #28672	; 0x7000
 8002eec:	f023 0340 	bic.w	r3, r3, #64	; 0x40
 8002ef0:	041b      	lsls	r3, r3, #16
 8002ef2:	0c1b      	lsrs	r3, r3, #16
 8002ef4:	f083 0310 	eor.w	r3, r3, #16
 8002ef8:	f443 4300 	orr.w	r3, r3, #32768	; 0x8000
 8002efc:	f043 0380 	orr.w	r3, r3, #128	; 0x80
 8002f00:	f820 3022 	strh.w	r3, [r0, r2, lsl #2]
 8002f04:	2000      	movs	r0, #0
 8002f06:	4770      	bx	lr
 8002f08:	f830 3022 	ldrh.w	r3, [r0, r2, lsl #2]
 8002f0c:	f423 4380 	bic.w	r3, r3, #16384	; 0x4000
 8002f10:	f023 0370 	bic.w	r3, r3, #112	; 0x70
 8002f14:	041b      	lsls	r3, r3, #16
 8002f16:	0c1b      	lsrs	r3, r3, #16
 8002f18:	f483 5380 	eor.w	r3, r3, #4096	; 0x1000
 8002f1c:	e7ec      	b.n	8002ef8 <USB_EPSetStall+0x1a>

08002f1e <USB_EPClearStall>:
 8002f1e:	7b0b      	ldrb	r3, [r1, #12]
 8002f20:	bb43      	cbnz	r3, 8002f74 <USB_EPClearStall+0x56>
 8002f22:	784b      	ldrb	r3, [r1, #1]
 8002f24:	780a      	ldrb	r2, [r1, #0]
 8002f26:	b33b      	cbz	r3, 8002f78 <USB_EPClearStall+0x5a>
 8002f28:	f830 3022 	ldrh.w	r3, [r0, r2, lsl #2]
 8002f2c:	065b      	lsls	r3, r3, #25
 8002f2e:	d50d      	bpl.n	8002f4c <USB_EPClearStall+0x2e>
 8002f30:	f830 3022 	ldrh.w	r3, [r0, r2, lsl #2]
 8002f34:	f423 43e0 	bic.w	r3, r3, #28672	; 0x7000
 8002f38:	f023 0370 	bic.w	r3, r3, #112	; 0x70
 8002f3c:	041b      	lsls	r3, r3, #16
 8002f3e:	0c1b      	lsrs	r3, r3, #16
 8002f40:	f443 4300 	orr.w	r3, r3, #32768	; 0x8000
 8002f44:	f043 03c0 	orr.w	r3, r3, #192	; 0xc0
 8002f48:	f820 3022 	strh.w	r3, [r0, r2, lsl #2]
 8002f4c:	78cb      	ldrb	r3, [r1, #3]
 8002f4e:	2b01      	cmp	r3, #1
 8002f50:	d010      	beq.n	8002f74 <USB_EPClearStall+0x56>
 8002f52:	780a      	ldrb	r2, [r1, #0]
 8002f54:	f830 3022 	ldrh.w	r3, [r0, r2, lsl #2]
 8002f58:	f423 43e0 	bic.w	r3, r3, #28672	; 0x7000
 8002f5c:	f023 0340 	bic.w	r3, r3, #64	; 0x40
 8002f60:	041b      	lsls	r3, r3, #16
 8002f62:	0c1b      	lsrs	r3, r3, #16
 8002f64:	f083 0320 	eor.w	r3, r3, #32
 8002f68:	f443 4300 	orr.w	r3, r3, #32768	; 0x8000
 8002f6c:	f043 0380 	orr.w	r3, r3, #128	; 0x80
 8002f70:	f820 3022 	strh.w	r3, [r0, r2, lsl #2]
 8002f74:	2000      	movs	r0, #0
 8002f76:	4770      	bx	lr
 8002f78:	f830 3022 	ldrh.w	r3, [r0, r2, lsl #2]
 8002f7c:	045b      	lsls	r3, r3, #17
 8002f7e:	d50d      	bpl.n	8002f9c <USB_EPClearStall+0x7e>
 8002f80:	f830 3022 	ldrh.w	r3, [r0, r2, lsl #2]
 8002f84:	f423 43e0 	bic.w	r3, r3, #28672	; 0x7000
 8002f88:	f023 0370 	bic.w	r3, r3, #112	; 0x70
 8002f8c:	041b      	lsls	r3, r3, #16
 8002f8e:	0c1b      	lsrs	r3, r3, #16
 8002f90:	f443 4340 	orr.w	r3, r3, #49152	; 0xc000
 8002f94:	f043 0380 	orr.w	r3, r3, #128	; 0x80
 8002f98:	f820 3022 	strh.w	r3, [r0, r2, lsl #2]
 8002f9c:	780a      	ldrb	r2, [r1, #0]
 8002f9e:	f830 3022 	ldrh.w	r3, [r0, r2, lsl #2]
 8002fa2:	f423 4380 	bic.w	r3, r3, #16384	; 0x4000
 8002fa6:	f023 0370 	bic.w	r3, r3, #112	; 0x70
 8002faa:	041b      	lsls	r3, r3, #16
 8002fac:	0c1b      	lsrs	r3, r3, #16
 8002fae:	f483 5340 	eor.w	r3, r3, #12288	; 0x3000
 8002fb2:	e7d9      	b.n	8002f68 <USB_EPClearStall+0x4a>

08002fb4 <USB_SetDevAddress>:
 8002fb4:	b911      	cbnz	r1, 8002fbc <USB_SetDevAddress+0x8>
 8002fb6:	2380      	movs	r3, #128	; 0x80
 8002fb8:	f8a0 304c 	strh.w	r3, [r0, #76]	; 0x4c
 8002fbc:	2000      	movs	r0, #0
 8002fbe:	4770      	bx	lr

08002fc0 <USB_DevConnect>:
 8002fc0:	f8b0 3058 	ldrh.w	r3, [r0, #88]	; 0x58
 8002fc4:	ea6f 4343 	mvn.w	r3, r3, lsl #17
 8002fc8:	ea6f 4353 	mvn.w	r3, r3, lsr #17
 8002fcc:	b29b      	uxth	r3, r3
 8002fce:	f8a0 3058 	strh.w	r3, [r0, #88]	; 0x58
 8002fd2:	2000      	movs	r0, #0
 8002fd4:	4770      	bx	lr

08002fd6 <USB_ReadInterrupts>:
 8002fd6:	f8b0 0044 	ldrh.w	r0, [r0, #68]	; 0x44
 8002fda:	b280      	uxth	r0, r0
 8002fdc:	4770      	bx	lr

08002fde <USB_WritePMA>:
 8002fde:	f502 6280 	add.w	r2, r2, #1024	; 0x400
 8002fe2:	3301      	adds	r3, #1
 8002fe4:	4410      	add	r0, r2
 8002fe6:	085b      	lsrs	r3, r3, #1
 8002fe8:	eb01 0343 	add.w	r3, r1, r3, lsl #1
 8002fec:	1a40      	subs	r0, r0, r1
 8002fee:	4299      	cmp	r1, r3
 8002ff0:	d100      	bne.n	8002ff4 <USB_WritePMA+0x16>
 8002ff2:	4770      	bx	lr
 8002ff4:	880a      	ldrh	r2, [r1, #0]
 8002ff6:	5242      	strh	r2, [r0, r1]
 8002ff8:	3102      	adds	r1, #2
 8002ffa:	e7f8      	b.n	8002fee <USB_WritePMA+0x10>

08002ffc <USB_EPStartXfer>:
 8002ffc:	b5f8      	push	{r3, r4, r5, r6, r7, lr}
 8002ffe:	784a      	ldrb	r2, [r1, #1]
 8003000:	4605      	mov	r5, r0
 8003002:	2a01      	cmp	r2, #1
 8003004:	460c      	mov	r4, r1
 8003006:	7b0f      	ldrb	r7, [r1, #12]
 8003008:	f040 8260 	bne.w	80034cc <USB_EPStartXfer+0x4d0>
 800300c:	690a      	ldr	r2, [r1, #16]
 800300e:	698e      	ldr	r6, [r1, #24]
 8003010:	6949      	ldr	r1, [r1, #20]
 8003012:	4296      	cmp	r6, r2
 8003014:	bf28      	it	cs
 8003016:	4616      	movcs	r6, r2
 8003018:	bb0f      	cbnz	r7, 800305e <USB_EPStartXfer+0x62>
 800301a:	b2b6      	uxth	r6, r6
 800301c:	4633      	mov	r3, r6
 800301e:	88e2      	ldrh	r2, [r4, #6]
 8003020:	f7ff ffdd 	bl	8002fde <USB_WritePMA>
 8003024:	f8b5 2050 	ldrh.w	r2, [r5, #80]	; 0x50
 8003028:	7823      	ldrb	r3, [r4, #0]
 800302a:	f205 4102 	addw	r1, r5, #1026	; 0x402
 800302e:	fa11 f282 	uxtah	r2, r1, r2
 8003032:	eb02 02c3 	add.w	r2, r2, r3, lsl #3
 8003036:	8016      	strh	r6, [r2, #0]
 8003038:	7822      	ldrb	r2, [r4, #0]
 800303a:	f835 3022 	ldrh.w	r3, [r5, r2, lsl #2]
 800303e:	f423 43e0 	bic.w	r3, r3, #28672	; 0x7000
 8003042:	f023 0340 	bic.w	r3, r3, #64	; 0x40
 8003046:	041b      	lsls	r3, r3, #16
 8003048:	0c1b      	lsrs	r3, r3, #16
 800304a:	f083 0330 	eor.w	r3, r3, #48	; 0x30
 800304e:	2000      	movs	r0, #0
 8003050:	f443 4300 	orr.w	r3, r3, #32768	; 0x8000
 8003054:	f043 0380 	orr.w	r3, r3, #128	; 0x80
 8003058:	f825 3022 	strh.w	r3, [r5, r2, lsl #2]
 800305c:	bdf8      	pop	{r3, r4, r5, r6, r7, pc}
 800305e:	f894 c003 	ldrb.w	ip, [r4, #3]
 8003062:	6a23      	ldr	r3, [r4, #32]
 8003064:	f1bc 0f02 	cmp.w	ip, #2
 8003068:	7827      	ldrb	r7, [r4, #0]
 800306a:	f040 813c 	bne.w	80032e6 <USB_EPStartXfer+0x2ea>
 800306e:	429a      	cmp	r2, r3
 8003070:	f830 2027 	ldrh.w	r2, [r0, r7, lsl #2]
 8003074:	f080 811c 	bcs.w	80032b0 <USB_EPStartXfer+0x2b4>
 8003078:	f422 42e0 	bic.w	r2, r2, #28672	; 0x7000
 800307c:	f022 0270 	bic.w	r2, r2, #112	; 0x70
 8003080:	0412      	lsls	r2, r2, #16
 8003082:	0c12      	lsrs	r2, r2, #16
 8003084:	f442 4201 	orr.w	r2, r2, #33024	; 0x8100
 8003088:	f042 0280 	orr.w	r2, r2, #128	; 0x80
 800308c:	f820 2027 	strh.w	r2, [r0, r7, lsl #2]
 8003090:	7820      	ldrb	r0, [r4, #0]
 8003092:	1b9b      	subs	r3, r3, r6
 8003094:	f835 2020 	ldrh.w	r2, [r5, r0, lsl #2]
 8003098:	6223      	str	r3, [r4, #32]
 800309a:	f012 0f40 	tst.w	r2, #64	; 0x40
 800309e:	b2b3      	uxth	r3, r6
 80030a0:	7862      	ldrb	r2, [r4, #1]
 80030a2:	f000 8083 	beq.w	80031ac <USB_EPStartXfer+0x1b0>
 80030a6:	2a00      	cmp	r2, #0
 80030a8:	d152      	bne.n	8003150 <USB_EPStartXfer+0x154>
 80030aa:	f8b5 2050 	ldrh.w	r2, [r5, #80]	; 0x50
 80030ae:	f205 4706 	addw	r7, r5, #1030	; 0x406
 80030b2:	fa17 f282 	uxtah	r2, r7, r2
 80030b6:	eb02 02c0 	add.w	r2, r2, r0, lsl #3
 80030ba:	2e00      	cmp	r6, #0
 80030bc:	d137      	bne.n	800312e <USB_EPStartXfer+0x132>
 80030be:	8810      	ldrh	r0, [r2, #0]
 80030c0:	f420 40f8 	bic.w	r0, r0, #31744	; 0x7c00
 80030c4:	0400      	lsls	r0, r0, #16
 80030c6:	0c00      	lsrs	r0, r0, #16
 80030c8:	8010      	strh	r0, [r2, #0]
 80030ca:	8810      	ldrh	r0, [r2, #0]
 80030cc:	ea6f 4040 	mvn.w	r0, r0, lsl #17
 80030d0:	ea6f 4050 	mvn.w	r0, r0, lsr #17
 80030d4:	b280      	uxth	r0, r0
 80030d6:	8010      	strh	r0, [r2, #0]
 80030d8:	4628      	mov	r0, r5
 80030da:	8962      	ldrh	r2, [r4, #10]
 80030dc:	f7ff ff7f 	bl	8002fde <USB_WritePMA>
 80030e0:	6a20      	ldr	r0, [r4, #32]
 80030e2:	6923      	ldr	r3, [r4, #16]
 80030e4:	6961      	ldr	r1, [r4, #20]
 80030e6:	4298      	cmp	r0, r3
 80030e8:	bf8a      	itet	hi
 80030ea:	1b83      	subhi	r3, r0, r6
 80030ec:	2300      	movls	r3, #0
 80030ee:	4630      	movhi	r0, r6
 80030f0:	7862      	ldrb	r2, [r4, #1]
 80030f2:	4431      	add	r1, r6
 80030f4:	6223      	str	r3, [r4, #32]
 80030f6:	6161      	str	r1, [r4, #20]
 80030f8:	b283      	uxth	r3, r0
 80030fa:	2a00      	cmp	r2, #0
 80030fc:	d149      	bne.n	8003192 <USB_EPStartXfer+0x196>
 80030fe:	f8b5 2050 	ldrh.w	r2, [r5, #80]	; 0x50
 8003102:	7826      	ldrb	r6, [r4, #0]
 8003104:	f205 4702 	addw	r7, r5, #1026	; 0x402
 8003108:	fa17 f282 	uxtah	r2, r7, r2
 800310c:	eb02 02c6 	add.w	r2, r2, r6, lsl #3
 8003110:	bb50      	cbnz	r0, 8003168 <USB_EPStartXfer+0x16c>
 8003112:	8810      	ldrh	r0, [r2, #0]
 8003114:	f420 40f8 	bic.w	r0, r0, #31744	; 0x7c00
 8003118:	0400      	lsls	r0, r0, #16
 800311a:	0c00      	lsrs	r0, r0, #16
 800311c:	8010      	strh	r0, [r2, #0]
 800311e:	8810      	ldrh	r0, [r2, #0]
 8003120:	ea6f 4040 	mvn.w	r0, r0, lsl #17
 8003124:	ea6f 4050 	mvn.w	r0, r0, lsr #17
 8003128:	b280      	uxth	r0, r0
 800312a:	8010      	strh	r0, [r2, #0]
 800312c:	e025      	b.n	800317a <USB_EPStartXfer+0x17e>
 800312e:	2e3e      	cmp	r6, #62	; 0x3e
 8003130:	d805      	bhi.n	800313e <USB_EPStartXfer+0x142>
 8003132:	0870      	lsrs	r0, r6, #1
 8003134:	07f7      	lsls	r7, r6, #31
 8003136:	bf48      	it	mi
 8003138:	3001      	addmi	r0, #1
 800313a:	0280      	lsls	r0, r0, #10
 800313c:	e7ca      	b.n	80030d4 <USB_EPStartXfer+0xd8>
 800313e:	0977      	lsrs	r7, r6, #5
 8003140:	06f0      	lsls	r0, r6, #27
 8003142:	48ab      	ldr	r0, [pc, #684]	; (80033f0 <USB_EPStartXfer+0x3f4>)
 8003144:	bf08      	it	eq
 8003146:	f107 37ff 	addeq.w	r7, r7, #4294967295
 800314a:	ea40 2087 	orr.w	r0, r0, r7, lsl #10
 800314e:	e7c1      	b.n	80030d4 <USB_EPStartXfer+0xd8>
 8003150:	2a01      	cmp	r2, #1
 8003152:	d1c1      	bne.n	80030d8 <USB_EPStartXfer+0xdc>
 8003154:	f8b5 2050 	ldrh.w	r2, [r5, #80]	; 0x50
 8003158:	f205 4706 	addw	r7, r5, #1030	; 0x406
 800315c:	fa17 f282 	uxtah	r2, r7, r2
 8003160:	eb02 02c0 	add.w	r2, r2, r0, lsl #3
 8003164:	8013      	strh	r3, [r2, #0]
 8003166:	e7b7      	b.n	80030d8 <USB_EPStartXfer+0xdc>
 8003168:	283e      	cmp	r0, #62	; 0x3e
 800316a:	d809      	bhi.n	8003180 <USB_EPStartXfer+0x184>
 800316c:	0846      	lsrs	r6, r0, #1
 800316e:	07c7      	lsls	r7, r0, #31
 8003170:	bf48      	it	mi
 8003172:	3601      	addmi	r6, #1
 8003174:	02b6      	lsls	r6, r6, #10
 8003176:	b2b6      	uxth	r6, r6
 8003178:	8016      	strh	r6, [r2, #0]
 800317a:	8922      	ldrh	r2, [r4, #8]
 800317c:	4628      	mov	r0, r5
 800317e:	e0af      	b.n	80032e0 <USB_EPStartXfer+0x2e4>
 8003180:	0946      	lsrs	r6, r0, #5
 8003182:	06c0      	lsls	r0, r0, #27
 8003184:	489a      	ldr	r0, [pc, #616]	; (80033f0 <USB_EPStartXfer+0x3f4>)
 8003186:	bf08      	it	eq
 8003188:	f106 36ff 	addeq.w	r6, r6, #4294967295
 800318c:	ea40 2086 	orr.w	r0, r0, r6, lsl #10
 8003190:	e7ca      	b.n	8003128 <USB_EPStartXfer+0x12c>
 8003192:	2a01      	cmp	r2, #1
 8003194:	d1f1      	bne.n	800317a <USB_EPStartXfer+0x17e>
 8003196:	f8b5 2050 	ldrh.w	r2, [r5, #80]	; 0x50
 800319a:	7820      	ldrb	r0, [r4, #0]
 800319c:	f205 4602 	addw	r6, r5, #1026	; 0x402
 80031a0:	fa16 f282 	uxtah	r2, r6, r2
 80031a4:	eb02 02c0 	add.w	r2, r2, r0, lsl #3
 80031a8:	8013      	strh	r3, [r2, #0]
 80031aa:	e7e6      	b.n	800317a <USB_EPStartXfer+0x17e>
 80031ac:	2a00      	cmp	r2, #0
 80031ae:	d152      	bne.n	8003256 <USB_EPStartXfer+0x25a>
 80031b0:	f8b5 2050 	ldrh.w	r2, [r5, #80]	; 0x50
 80031b4:	f205 4702 	addw	r7, r5, #1026	; 0x402
 80031b8:	fa17 f282 	uxtah	r2, r7, r2
 80031bc:	eb02 02c0 	add.w	r2, r2, r0, lsl #3
 80031c0:	2e00      	cmp	r6, #0
 80031c2:	d137      	bne.n	8003234 <USB_EPStartXfer+0x238>
 80031c4:	8810      	ldrh	r0, [r2, #0]
 80031c6:	f420 40f8 	bic.w	r0, r0, #31744	; 0x7c00
 80031ca:	0400      	lsls	r0, r0, #16
 80031cc:	0c00      	lsrs	r0, r0, #16
 80031ce:	8010      	strh	r0, [r2, #0]
 80031d0:	8810      	ldrh	r0, [r2, #0]
 80031d2:	ea6f 4040 	mvn.w	r0, r0, lsl #17
 80031d6:	ea6f 4050 	mvn.w	r0, r0, lsr #17
 80031da:	b280      	uxth	r0, r0
 80031dc:	8010      	strh	r0, [r2, #0]
 80031de:	4628      	mov	r0, r5
 80031e0:	8922      	ldrh	r2, [r4, #8]
 80031e2:	f7ff fefc 	bl	8002fde <USB_WritePMA>
 80031e6:	6a20      	ldr	r0, [r4, #32]
 80031e8:	6923      	ldr	r3, [r4, #16]
 80031ea:	6961      	ldr	r1, [r4, #20]
 80031ec:	4298      	cmp	r0, r3
 80031ee:	bf8a      	itet	hi
 80031f0:	1b83      	subhi	r3, r0, r6
 80031f2:	2300      	movls	r3, #0
 80031f4:	4630      	movhi	r0, r6
 80031f6:	7862      	ldrb	r2, [r4, #1]
 80031f8:	4431      	add	r1, r6
 80031fa:	6223      	str	r3, [r4, #32]
 80031fc:	6161      	str	r1, [r4, #20]
 80031fe:	b283      	uxth	r3, r0
 8003200:	2a00      	cmp	r2, #0
 8003202:	d148      	bne.n	8003296 <USB_EPStartXfer+0x29a>
 8003204:	f8b5 2050 	ldrh.w	r2, [r5, #80]	; 0x50
 8003208:	7826      	ldrb	r6, [r4, #0]
 800320a:	f205 4706 	addw	r7, r5, #1030	; 0x406
 800320e:	fa17 f282 	uxtah	r2, r7, r2
 8003212:	eb02 02c6 	add.w	r2, r2, r6, lsl #3
 8003216:	bb50      	cbnz	r0, 800326e <USB_EPStartXfer+0x272>
 8003218:	8810      	ldrh	r0, [r2, #0]
 800321a:	f420 40f8 	bic.w	r0, r0, #31744	; 0x7c00
 800321e:	0400      	lsls	r0, r0, #16
 8003220:	0c00      	lsrs	r0, r0, #16
 8003222:	8010      	strh	r0, [r2, #0]
 8003224:	8810      	ldrh	r0, [r2, #0]
 8003226:	ea6f 4040 	mvn.w	r0, r0, lsl #17
 800322a:	ea6f 4050 	mvn.w	r0, r0, lsr #17
 800322e:	b280      	uxth	r0, r0
 8003230:	8010      	strh	r0, [r2, #0]
 8003232:	e025      	b.n	8003280 <USB_EPStartXfer+0x284>
 8003234:	2e3e      	cmp	r6, #62	; 0x3e
 8003236:	d805      	bhi.n	8003244 <USB_EPStartXfer+0x248>
 8003238:	0870      	lsrs	r0, r6, #1
 800323a:	07f7      	lsls	r7, r6, #31
 800323c:	bf48      	it	mi
 800323e:	3001      	addmi	r0, #1
 8003240:	0280      	lsls	r0, r0, #10
 8003242:	e7ca      	b.n	80031da <USB_EPStartXfer+0x1de>
 8003244:	0977      	lsrs	r7, r6, #5
 8003246:	06f0      	lsls	r0, r6, #27
 8003248:	4869      	ldr	r0, [pc, #420]	; (80033f0 <USB_EPStartXfer+0x3f4>)
 800324a:	bf08      	it	eq
 800324c:	f107 37ff 	addeq.w	r7, r7, #4294967295
 8003250:	ea40 2087 	orr.w	r0, r0, r7, lsl #10
 8003254:	e7c1      	b.n	80031da <USB_EPStartXfer+0x1de>
 8003256:	2a01      	cmp	r2, #1
 8003258:	d1c1      	bne.n	80031de <USB_EPStartXfer+0x1e2>
 800325a:	f8b5 2050 	ldrh.w	r2, [r5, #80]	; 0x50
 800325e:	f205 4702 	addw	r7, r5, #1026	; 0x402
 8003262:	fa17 f282 	uxtah	r2, r7, r2
 8003266:	eb02 02c0 	add.w	r2, r2, r0, lsl #3
 800326a:	8013      	strh	r3, [r2, #0]
 800326c:	e7b7      	b.n	80031de <USB_EPStartXfer+0x1e2>
 800326e:	283e      	cmp	r0, #62	; 0x3e
 8003270:	d808      	bhi.n	8003284 <USB_EPStartXfer+0x288>
 8003272:	0846      	lsrs	r6, r0, #1
 8003274:	07c7      	lsls	r7, r0, #31
 8003276:	bf48      	it	mi
 8003278:	3601      	addmi	r6, #1
 800327a:	02b6      	lsls	r6, r6, #10
 800327c:	b2b6      	uxth	r6, r6
 800327e:	8016      	strh	r6, [r2, #0]
 8003280:	8962      	ldrh	r2, [r4, #10]
 8003282:	e77b      	b.n	800317c <USB_EPStartXfer+0x180>
 8003284:	0946      	lsrs	r6, r0, #5
 8003286:	06c0      	lsls	r0, r0, #27
 8003288:	4859      	ldr	r0, [pc, #356]	; (80033f0 <USB_EPStartXfer+0x3f4>)
 800328a:	bf08      	it	eq
 800328c:	f106 36ff 	addeq.w	r6, r6, #4294967295
 8003290:	ea40 2086 	orr.w	r0, r0, r6, lsl #10
 8003294:	e7cb      	b.n	800322e <USB_EPStartXfer+0x232>
 8003296:	2a01      	cmp	r2, #1
 8003298:	d1f2      	bne.n	8003280 <USB_EPStartXfer+0x284>
 800329a:	f8b5 2050 	ldrh.w	r2, [r5, #80]	; 0x50
 800329e:	7820      	ldrb	r0, [r4, #0]
 80032a0:	f205 4606 	addw	r6, r5, #1030	; 0x406
 80032a4:	fa16 f282 	uxtah	r2, r6, r2
 80032a8:	eb02 02c0 	add.w	r2, r2, r0, lsl #3
 80032ac:	8013      	strh	r3, [r2, #0]
 80032ae:	e7e7      	b.n	8003280 <USB_EPStartXfer+0x284>
 80032b0:	f422 42e2 	bic.w	r2, r2, #28928	; 0x7100
 80032b4:	f022 0270 	bic.w	r2, r2, #112	; 0x70
 80032b8:	0412      	lsls	r2, r2, #16
 80032ba:	0c12      	lsrs	r2, r2, #16
 80032bc:	f442 4200 	orr.w	r2, r2, #32768	; 0x8000
 80032c0:	f042 0280 	orr.w	r2, r2, #128	; 0x80
 80032c4:	f820 2027 	strh.w	r2, [r0, r7, lsl #2]
 80032c8:	f8b0 2050 	ldrh.w	r2, [r0, #80]	; 0x50
 80032cc:	7826      	ldrb	r6, [r4, #0]
 80032ce:	f200 4702 	addw	r7, r0, #1026	; 0x402
 80032d2:	fa17 f282 	uxtah	r2, r7, r2
 80032d6:	eb02 02c6 	add.w	r2, r2, r6, lsl #3
 80032da:	b29b      	uxth	r3, r3
 80032dc:	8013      	strh	r3, [r2, #0]
 80032de:	8922      	ldrh	r2, [r4, #8]
 80032e0:	f7ff fe7d 	bl	8002fde <USB_WritePMA>
 80032e4:	e6a8      	b.n	8003038 <USB_EPStartXfer+0x3c>
 80032e6:	f830 2027 	ldrh.w	r2, [r0, r7, lsl #2]
 80032ea:	1b9b      	subs	r3, r3, r6
 80032ec:	f422 42e0 	bic.w	r2, r2, #28672	; 0x7000
 80032f0:	f022 0270 	bic.w	r2, r2, #112	; 0x70
 80032f4:	0412      	lsls	r2, r2, #16
 80032f6:	0c12      	lsrs	r2, r2, #16
 80032f8:	f442 4201 	orr.w	r2, r2, #33024	; 0x8100
 80032fc:	f042 0280 	orr.w	r2, r2, #128	; 0x80
 8003300:	f820 2027 	strh.w	r2, [r0, r7, lsl #2]
 8003304:	7820      	ldrb	r0, [r4, #0]
 8003306:	6223      	str	r3, [r4, #32]
 8003308:	f835 2020 	ldrh.w	r2, [r5, r0, lsl #2]
 800330c:	b2b3      	uxth	r3, r6
 800330e:	f012 0f40 	tst.w	r2, #64	; 0x40
 8003312:	7862      	ldrb	r2, [r4, #1]
 8003314:	d06e      	beq.n	80033f4 <USB_EPStartXfer+0x3f8>
 8003316:	2a00      	cmp	r2, #0
 8003318:	d150      	bne.n	80033bc <USB_EPStartXfer+0x3c0>
 800331a:	f8b5 2050 	ldrh.w	r2, [r5, #80]	; 0x50
 800331e:	f205 4706 	addw	r7, r5, #1030	; 0x406
 8003322:	fa17 f282 	uxtah	r2, r7, r2
 8003326:	eb02 02c0 	add.w	r2, r2, r0, lsl #3
 800332a:	2e00      	cmp	r6, #0
 800332c:	d135      	bne.n	800339a <USB_EPStartXfer+0x39e>
 800332e:	8810      	ldrh	r0, [r2, #0]
 8003330:	f420 40f8 	bic.w	r0, r0, #31744	; 0x7c00
 8003334:	0400      	lsls	r0, r0, #16
 8003336:	0c00      	lsrs	r0, r0, #16
 8003338:	8010      	strh	r0, [r2, #0]
 800333a:	8810      	ldrh	r0, [r2, #0]
 800333c:	ea6f 4040 	mvn.w	r0, r0, lsl #17
 8003340:	ea6f 4050 	mvn.w	r0, r0, lsr #17
 8003344:	b280      	uxth	r0, r0
 8003346:	8010      	strh	r0, [r2, #0]
 8003348:	8962      	ldrh	r2, [r4, #10]
 800334a:	4628      	mov	r0, r5
 800334c:	f7ff fe47 	bl	8002fde <USB_WritePMA>
 8003350:	6a22      	ldr	r2, [r4, #32]
 8003352:	6923      	ldr	r3, [r4, #16]
 8003354:	6961      	ldr	r1, [r4, #20]
 8003356:	429a      	cmp	r2, r3
 8003358:	bf8a      	itet	hi
 800335a:	1b93      	subhi	r3, r2, r6
 800335c:	2300      	movls	r3, #0
 800335e:	4632      	movhi	r2, r6
 8003360:	4431      	add	r1, r6
 8003362:	6161      	str	r1, [r4, #20]
 8003364:	6223      	str	r3, [r4, #32]
 8003366:	2a00      	cmp	r2, #0
 8003368:	f43f ae66 	beq.w	8003038 <USB_EPStartXfer+0x3c>
 800336c:	7860      	ldrb	r0, [r4, #1]
 800336e:	b293      	uxth	r3, r2
 8003370:	2800      	cmp	r0, #0
 8003372:	d13a      	bne.n	80033ea <USB_EPStartXfer+0x3ee>
 8003374:	f8b5 6050 	ldrh.w	r6, [r5, #80]	; 0x50
 8003378:	7820      	ldrb	r0, [r4, #0]
 800337a:	f205 4702 	addw	r7, r5, #1026	; 0x402
 800337e:	fa17 f686 	uxtah	r6, r7, r6
 8003382:	2a3e      	cmp	r2, #62	; 0x3e
 8003384:	eb06 06c0 	add.w	r6, r6, r0, lsl #3
 8003388:	d824      	bhi.n	80033d4 <USB_EPStartXfer+0x3d8>
 800338a:	0850      	lsrs	r0, r2, #1
 800338c:	07d7      	lsls	r7, r2, #31
 800338e:	bf48      	it	mi
 8003390:	3001      	addmi	r0, #1
 8003392:	0280      	lsls	r0, r0, #10
 8003394:	b280      	uxth	r0, r0
 8003396:	8030      	strh	r0, [r6, #0]
 8003398:	e6ef      	b.n	800317a <USB_EPStartXfer+0x17e>
 800339a:	2e3e      	cmp	r6, #62	; 0x3e
 800339c:	d805      	bhi.n	80033aa <USB_EPStartXfer+0x3ae>
 800339e:	0870      	lsrs	r0, r6, #1
 80033a0:	07f7      	lsls	r7, r6, #31
 80033a2:	bf48      	it	mi
 80033a4:	3001      	addmi	r0, #1
 80033a6:	0280      	lsls	r0, r0, #10
 80033a8:	e7cc      	b.n	8003344 <USB_EPStartXfer+0x348>
 80033aa:	0977      	lsrs	r7, r6, #5
 80033ac:	06f0      	lsls	r0, r6, #27
 80033ae:	4810      	ldr	r0, [pc, #64]	; (80033f0 <USB_EPStartXfer+0x3f4>)
 80033b0:	bf08      	it	eq
 80033b2:	f107 37ff 	addeq.w	r7, r7, #4294967295
 80033b6:	ea40 2087 	orr.w	r0, r0, r7, lsl #10
 80033ba:	e7c3      	b.n	8003344 <USB_EPStartXfer+0x348>
 80033bc:	2a01      	cmp	r2, #1
 80033be:	d1c3      	bne.n	8003348 <USB_EPStartXfer+0x34c>
 80033c0:	f8b5 2050 	ldrh.w	r2, [r5, #80]	; 0x50
 80033c4:	f205 4706 	addw	r7, r5, #1030	; 0x406
 80033c8:	fa17 f282 	uxtah	r2, r7, r2
 80033cc:	eb02 02c0 	add.w	r2, r2, r0, lsl #3
 80033d0:	8013      	strh	r3, [r2, #0]
 80033d2:	e7b9      	b.n	8003348 <USB_EPStartXfer+0x34c>
 80033d4:	0950      	lsrs	r0, r2, #5
 80033d6:	06d2      	lsls	r2, r2, #27
 80033d8:	4a05      	ldr	r2, [pc, #20]	; (80033f0 <USB_EPStartXfer+0x3f4>)
 80033da:	bf08      	it	eq
 80033dc:	f100 30ff 	addeq.w	r0, r0, #4294967295
 80033e0:	ea42 2280 	orr.w	r2, r2, r0, lsl #10
 80033e4:	b292      	uxth	r2, r2
 80033e6:	8032      	strh	r2, [r6, #0]
 80033e8:	e6c7      	b.n	800317a <USB_EPStartXfer+0x17e>
 80033ea:	2801      	cmp	r0, #1
 80033ec:	e6d2      	b.n	8003194 <USB_EPStartXfer+0x198>
 80033ee:	bf00      	nop
 80033f0:	ffff8000 	.word	0xffff8000
 80033f4:	2a00      	cmp	r2, #0
 80033f6:	d150      	bne.n	800349a <USB_EPStartXfer+0x49e>
 80033f8:	f8b5 2050 	ldrh.w	r2, [r5, #80]	; 0x50
 80033fc:	f205 4702 	addw	r7, r5, #1026	; 0x402
 8003400:	fa17 f282 	uxtah	r2, r7, r2
 8003404:	eb02 02c0 	add.w	r2, r2, r0, lsl #3
 8003408:	2e00      	cmp	r6, #0
 800340a:	d135      	bne.n	8003478 <USB_EPStartXfer+0x47c>
 800340c:	8810      	ldrh	r0, [r2, #0]
 800340e:	f420 40f8 	bic.w	r0, r0, #31744	; 0x7c00
 8003412:	0400      	lsls	r0, r0, #16
 8003414:	0c00      	lsrs	r0, r0, #16
 8003416:	8010      	strh	r0, [r2, #0]
 8003418:	8810      	ldrh	r0, [r2, #0]
 800341a:	ea6f 4040 	mvn.w	r0, r0, lsl #17
 800341e:	ea6f 4050 	mvn.w	r0, r0, lsr #17
 8003422:	b280      	uxth	r0, r0
 8003424:	8010      	strh	r0, [r2, #0]
 8003426:	8922      	ldrh	r2, [r4, #8]
 8003428:	4628      	mov	r0, r5
 800342a:	f7ff fdd8 	bl	8002fde <USB_WritePMA>
 800342e:	6a22      	ldr	r2, [r4, #32]
 8003430:	6923      	ldr	r3, [r4, #16]
 8003432:	6961      	ldr	r1, [r4, #20]
 8003434:	429a      	cmp	r2, r3
 8003436:	bf8a      	itet	hi
 8003438:	1b93      	subhi	r3, r2, r6
 800343a:	2300      	movls	r3, #0
 800343c:	4632      	movhi	r2, r6
 800343e:	4431      	add	r1, r6
 8003440:	6161      	str	r1, [r4, #20]
 8003442:	6223      	str	r3, [r4, #32]
 8003444:	2a00      	cmp	r2, #0
 8003446:	f43f adf7 	beq.w	8003038 <USB_EPStartXfer+0x3c>
 800344a:	7860      	ldrb	r0, [r4, #1]
 800344c:	b293      	uxth	r3, r2
 800344e:	2800      	cmp	r0, #0
 8003450:	d13a      	bne.n	80034c8 <USB_EPStartXfer+0x4cc>
 8003452:	f8b5 6050 	ldrh.w	r6, [r5, #80]	; 0x50
 8003456:	7820      	ldrb	r0, [r4, #0]
 8003458:	f205 4706 	addw	r7, r5, #1030	; 0x406
 800345c:	fa17 f686 	uxtah	r6, r7, r6
 8003460:	2a3e      	cmp	r2, #62	; 0x3e
 8003462:	eb06 06c0 	add.w	r6, r6, r0, lsl #3
 8003466:	d824      	bhi.n	80034b2 <USB_EPStartXfer+0x4b6>
 8003468:	0850      	lsrs	r0, r2, #1
 800346a:	07d2      	lsls	r2, r2, #31
 800346c:	bf48      	it	mi
 800346e:	3001      	addmi	r0, #1
 8003470:	0280      	lsls	r0, r0, #10
 8003472:	b280      	uxth	r0, r0
 8003474:	8030      	strh	r0, [r6, #0]
 8003476:	e703      	b.n	8003280 <USB_EPStartXfer+0x284>
 8003478:	2e3e      	cmp	r6, #62	; 0x3e
 800347a:	d805      	bhi.n	8003488 <USB_EPStartXfer+0x48c>
 800347c:	0870      	lsrs	r0, r6, #1
 800347e:	07f7      	lsls	r7, r6, #31
 8003480:	bf48      	it	mi
 8003482:	3001      	addmi	r0, #1
 8003484:	0280      	lsls	r0, r0, #10
 8003486:	e7cc      	b.n	8003422 <USB_EPStartXfer+0x426>
 8003488:	0977      	lsrs	r7, r6, #5
 800348a:	06f0      	lsls	r0, r6, #27
 800348c:	48a9      	ldr	r0, [pc, #676]	; (8003734 <USB_EPStartXfer+0x738>)
 800348e:	bf08      	it	eq
 8003490:	f107 37ff 	addeq.w	r7, r7, #4294967295
 8003494:	ea40 2087 	orr.w	r0, r0, r7, lsl #10
 8003498:	e7c3      	b.n	8003422 <USB_EPStartXfer+0x426>
 800349a:	2a01      	cmp	r2, #1
 800349c:	d1c3      	bne.n	8003426 <USB_EPStartXfer+0x42a>
 800349e:	f8b5 2050 	ldrh.w	r2, [r5, #80]	; 0x50
 80034a2:	f205 4702 	addw	r7, r5, #1026	; 0x402
 80034a6:	fa17 f282 	uxtah	r2, r7, r2
 80034aa:	eb02 02c0 	add.w	r2, r2, r0, lsl #3
 80034ae:	8013      	strh	r3, [r2, #0]
 80034b0:	e7b9      	b.n	8003426 <USB_EPStartXfer+0x42a>
 80034b2:	0950      	lsrs	r0, r2, #5
 80034b4:	06d7      	lsls	r7, r2, #27
 80034b6:	4a9f      	ldr	r2, [pc, #636]	; (8003734 <USB_EPStartXfer+0x738>)
 80034b8:	bf08      	it	eq
 80034ba:	f100 30ff 	addeq.w	r0, r0, #4294967295
 80034be:	ea42 2280 	orr.w	r2, r2, r0, lsl #10
 80034c2:	b292      	uxth	r2, r2
 80034c4:	8032      	strh	r2, [r6, #0]
 80034c6:	e6db      	b.n	8003280 <USB_EPStartXfer+0x284>
 80034c8:	2801      	cmp	r0, #1
 80034ca:	e6e5      	b.n	8003298 <USB_EPStartXfer+0x29c>
 80034cc:	2f00      	cmp	r7, #0
 80034ce:	d13c      	bne.n	800354a <USB_EPStartXfer+0x54e>
 80034d0:	698a      	ldr	r2, [r1, #24]
 80034d2:	690b      	ldr	r3, [r1, #16]
 80034d4:	429a      	cmp	r2, r3
 80034d6:	bf84      	itt	hi
 80034d8:	1ad7      	subhi	r7, r2, r3
 80034da:	461a      	movhi	r2, r3
 80034dc:	f8b0 3050 	ldrh.w	r3, [r0, #80]	; 0x50
 80034e0:	618f      	str	r7, [r1, #24]
 80034e2:	f200 4006 	addw	r0, r0, #1030	; 0x406
 80034e6:	7809      	ldrb	r1, [r1, #0]
 80034e8:	fa10 f383 	uxtah	r3, r0, r3
 80034ec:	eb03 03c1 	add.w	r3, r3, r1, lsl #3
 80034f0:	b96a      	cbnz	r2, 800350e <USB_EPStartXfer+0x512>
 80034f2:	881a      	ldrh	r2, [r3, #0]
 80034f4:	f422 42f8 	bic.w	r2, r2, #31744	; 0x7c00
 80034f8:	0412      	lsls	r2, r2, #16
 80034fa:	0c12      	lsrs	r2, r2, #16
 80034fc:	801a      	strh	r2, [r3, #0]
 80034fe:	881a      	ldrh	r2, [r3, #0]
 8003500:	ea6f 4242 	mvn.w	r2, r2, lsl #17
 8003504:	ea6f 4252 	mvn.w	r2, r2, lsr #17
 8003508:	b292      	uxth	r2, r2
 800350a:	801a      	strh	r2, [r3, #0]
 800350c:	e008      	b.n	8003520 <USB_EPStartXfer+0x524>
 800350e:	2a3e      	cmp	r2, #62	; 0x3e
 8003510:	d812      	bhi.n	8003538 <USB_EPStartXfer+0x53c>
 8003512:	0851      	lsrs	r1, r2, #1
 8003514:	07d0      	lsls	r0, r2, #31
 8003516:	bf48      	it	mi
 8003518:	3101      	addmi	r1, #1
 800351a:	0289      	lsls	r1, r1, #10
 800351c:	b289      	uxth	r1, r1
 800351e:	8019      	strh	r1, [r3, #0]
 8003520:	7822      	ldrb	r2, [r4, #0]
 8003522:	f835 3022 	ldrh.w	r3, [r5, r2, lsl #2]
 8003526:	f423 4380 	bic.w	r3, r3, #16384	; 0x4000
 800352a:	f023 0370 	bic.w	r3, r3, #112	; 0x70
 800352e:	041b      	lsls	r3, r3, #16
 8003530:	0c1b      	lsrs	r3, r3, #16
 8003532:	f483 5340 	eor.w	r3, r3, #12288	; 0x3000
 8003536:	e58a      	b.n	800304e <USB_EPStartXfer+0x52>
 8003538:	0951      	lsrs	r1, r2, #5
 800353a:	06d2      	lsls	r2, r2, #27
 800353c:	4a7d      	ldr	r2, [pc, #500]	; (8003734 <USB_EPStartXfer+0x738>)
 800353e:	bf08      	it	eq
 8003540:	f101 31ff 	addeq.w	r1, r1, #4294967295
 8003544:	ea42 2281 	orr.w	r2, r2, r1, lsl #10
 8003548:	e7de      	b.n	8003508 <USB_EPStartXfer+0x50c>
 800354a:	78cb      	ldrb	r3, [r1, #3]
 800354c:	2b02      	cmp	r3, #2
 800354e:	f040 8081 	bne.w	8003654 <USB_EPStartXfer+0x658>
 8003552:	b9c2      	cbnz	r2, 8003586 <USB_EPStartXfer+0x58a>
 8003554:	f8b0 3050 	ldrh.w	r3, [r0, #80]	; 0x50
 8003558:	780a      	ldrb	r2, [r1, #0]
 800355a:	f200 4102 	addw	r1, r0, #1026	; 0x402
 800355e:	fa11 f383 	uxtah	r3, r1, r3
 8003562:	6921      	ldr	r1, [r4, #16]
 8003564:	eb03 03c2 	add.w	r3, r3, r2, lsl #3
 8003568:	2900      	cmp	r1, #0
 800356a:	d145      	bne.n	80035f8 <USB_EPStartXfer+0x5fc>
 800356c:	881a      	ldrh	r2, [r3, #0]
 800356e:	f422 42f8 	bic.w	r2, r2, #31744	; 0x7c00
 8003572:	0412      	lsls	r2, r2, #16
 8003574:	0c12      	lsrs	r2, r2, #16
 8003576:	801a      	strh	r2, [r3, #0]
 8003578:	881a      	ldrh	r2, [r3, #0]
 800357a:	ea6f 4242 	mvn.w	r2, r2, lsl #17
 800357e:	ea6f 4252 	mvn.w	r2, r2, lsr #17
 8003582:	b292      	uxth	r2, r2
 8003584:	801a      	strh	r2, [r3, #0]
 8003586:	7862      	ldrb	r2, [r4, #1]
 8003588:	7823      	ldrb	r3, [r4, #0]
 800358a:	2a00      	cmp	r2, #0
 800358c:	d156      	bne.n	800363c <USB_EPStartXfer+0x640>
 800358e:	f8b5 2050 	ldrh.w	r2, [r5, #80]	; 0x50
 8003592:	f205 4106 	addw	r1, r5, #1030	; 0x406
 8003596:	fa11 f282 	uxtah	r2, r1, r2
 800359a:	6921      	ldr	r1, [r4, #16]
 800359c:	eb02 03c3 	add.w	r3, r2, r3, lsl #3
 80035a0:	2900      	cmp	r1, #0
 80035a2:	d13a      	bne.n	800361a <USB_EPStartXfer+0x61e>
 80035a4:	881a      	ldrh	r2, [r3, #0]
 80035a6:	f422 42f8 	bic.w	r2, r2, #31744	; 0x7c00
 80035aa:	0412      	lsls	r2, r2, #16
 80035ac:	0c12      	lsrs	r2, r2, #16
 80035ae:	801a      	strh	r2, [r3, #0]
 80035b0:	881a      	ldrh	r2, [r3, #0]
 80035b2:	ea6f 4242 	mvn.w	r2, r2, lsl #17
 80035b6:	ea6f 4252 	mvn.w	r2, r2, lsr #17
 80035ba:	b292      	uxth	r2, r2
 80035bc:	801a      	strh	r2, [r3, #0]
 80035be:	69e3      	ldr	r3, [r4, #28]
 80035c0:	2b00      	cmp	r3, #0
 80035c2:	d0ad      	beq.n	8003520 <USB_EPStartXfer+0x524>
 80035c4:	f244 0340 	movw	r3, #16448	; 0x4040
 80035c8:	7822      	ldrb	r2, [r4, #0]
 80035ca:	f835 1022 	ldrh.w	r1, [r5, r2, lsl #2]
 80035ce:	ea03 0001 	and.w	r0, r3, r1
 80035d2:	438b      	bics	r3, r1
 80035d4:	d001      	beq.n	80035da <USB_EPStartXfer+0x5de>
 80035d6:	2800      	cmp	r0, #0
 80035d8:	d1a2      	bne.n	8003520 <USB_EPStartXfer+0x524>
 80035da:	f835 3022 	ldrh.w	r3, [r5, r2, lsl #2]
 80035de:	f423 43e0 	bic.w	r3, r3, #28672	; 0x7000
 80035e2:	f023 0370 	bic.w	r3, r3, #112	; 0x70
 80035e6:	041b      	lsls	r3, r3, #16
 80035e8:	0c1b      	lsrs	r3, r3, #16
 80035ea:	f443 4300 	orr.w	r3, r3, #32768	; 0x8000
 80035ee:	f043 03c0 	orr.w	r3, r3, #192	; 0xc0
 80035f2:	f825 3022 	strh.w	r3, [r5, r2, lsl #2]
 80035f6:	e793      	b.n	8003520 <USB_EPStartXfer+0x524>
 80035f8:	293e      	cmp	r1, #62	; 0x3e
 80035fa:	d805      	bhi.n	8003608 <USB_EPStartXfer+0x60c>
 80035fc:	084a      	lsrs	r2, r1, #1
 80035fe:	07cf      	lsls	r7, r1, #31
 8003600:	bf48      	it	mi
 8003602:	3201      	addmi	r2, #1
 8003604:	0292      	lsls	r2, r2, #10
 8003606:	e7bc      	b.n	8003582 <USB_EPStartXfer+0x586>
 8003608:	0948      	lsrs	r0, r1, #5
 800360a:	4a4a      	ldr	r2, [pc, #296]	; (8003734 <USB_EPStartXfer+0x738>)
 800360c:	06ce      	lsls	r6, r1, #27
 800360e:	bf08      	it	eq
 8003610:	f100 30ff 	addeq.w	r0, r0, #4294967295
 8003614:	ea42 2280 	orr.w	r2, r2, r0, lsl #10
 8003618:	e7b3      	b.n	8003582 <USB_EPStartXfer+0x586>
 800361a:	293e      	cmp	r1, #62	; 0x3e
 800361c:	d805      	bhi.n	800362a <USB_EPStartXfer+0x62e>
 800361e:	084a      	lsrs	r2, r1, #1
 8003620:	07c9      	lsls	r1, r1, #31
 8003622:	bf48      	it	mi
 8003624:	3201      	addmi	r2, #1
 8003626:	0292      	lsls	r2, r2, #10
 8003628:	e7c7      	b.n	80035ba <USB_EPStartXfer+0x5be>
 800362a:	0948      	lsrs	r0, r1, #5
 800362c:	06ca      	lsls	r2, r1, #27
 800362e:	4a41      	ldr	r2, [pc, #260]	; (8003734 <USB_EPStartXfer+0x738>)
 8003630:	bf08      	it	eq
 8003632:	f100 30ff 	addeq.w	r0, r0, #4294967295
 8003636:	ea42 2280 	orr.w	r2, r2, r0, lsl #10
 800363a:	e7be      	b.n	80035ba <USB_EPStartXfer+0x5be>
 800363c:	2a01      	cmp	r2, #1
 800363e:	d1be      	bne.n	80035be <USB_EPStartXfer+0x5c2>
 8003640:	f8b5 2050 	ldrh.w	r2, [r5, #80]	; 0x50
 8003644:	f205 4106 	addw	r1, r5, #1030	; 0x406
 8003648:	fa11 f282 	uxtah	r2, r1, r2
 800364c:	eb02 03c3 	add.w	r3, r2, r3, lsl #3
 8003650:	8a22      	ldrh	r2, [r4, #16]
 8003652:	e7b3      	b.n	80035bc <USB_EPStartXfer+0x5c0>
 8003654:	2b01      	cmp	r3, #1
 8003656:	d16b      	bne.n	8003730 <USB_EPStartXfer+0x734>
 8003658:	698b      	ldr	r3, [r1, #24]
 800365a:	6909      	ldr	r1, [r1, #16]
 800365c:	428b      	cmp	r3, r1
 800365e:	bf94      	ite	ls
 8003660:	2000      	movls	r0, #0
 8003662:	1a58      	subhi	r0, r3, r1
 8003664:	61a0      	str	r0, [r4, #24]
 8003666:	bf88      	it	hi
 8003668:	460b      	movhi	r3, r1
 800366a:	b9b2      	cbnz	r2, 800369a <USB_EPStartXfer+0x69e>
 800366c:	f8b5 2050 	ldrh.w	r2, [r5, #80]	; 0x50
 8003670:	7821      	ldrb	r1, [r4, #0]
 8003672:	f205 4002 	addw	r0, r5, #1026	; 0x402
 8003676:	fa10 f282 	uxtah	r2, r0, r2
 800367a:	eb02 02c1 	add.w	r2, r2, r1, lsl #3
 800367e:	bb3b      	cbnz	r3, 80036d0 <USB_EPStartXfer+0x6d4>
 8003680:	8811      	ldrh	r1, [r2, #0]
 8003682:	f421 41f8 	bic.w	r1, r1, #31744	; 0x7c00
 8003686:	0409      	lsls	r1, r1, #16
 8003688:	0c09      	lsrs	r1, r1, #16
 800368a:	8011      	strh	r1, [r2, #0]
 800368c:	8811      	ldrh	r1, [r2, #0]
 800368e:	ea6f 4141 	mvn.w	r1, r1, lsl #17
 8003692:	ea6f 4151 	mvn.w	r1, r1, lsr #17
 8003696:	b289      	uxth	r1, r1
 8003698:	8011      	strh	r1, [r2, #0]
 800369a:	7861      	ldrb	r1, [r4, #1]
 800369c:	7822      	ldrb	r2, [r4, #0]
 800369e:	2900      	cmp	r1, #0
 80036a0:	d13a      	bne.n	8003718 <USB_EPStartXfer+0x71c>
 80036a2:	f8b5 1050 	ldrh.w	r1, [r5, #80]	; 0x50
 80036a6:	f205 4006 	addw	r0, r5, #1030	; 0x406
 80036aa:	fa10 f181 	uxtah	r1, r0, r1
 80036ae:	eb01 02c2 	add.w	r2, r1, r2, lsl #3
 80036b2:	b9f3      	cbnz	r3, 80036f2 <USB_EPStartXfer+0x6f6>
 80036b4:	8813      	ldrh	r3, [r2, #0]
 80036b6:	f423 43f8 	bic.w	r3, r3, #31744	; 0x7c00
 80036ba:	041b      	lsls	r3, r3, #16
 80036bc:	0c1b      	lsrs	r3, r3, #16
 80036be:	8013      	strh	r3, [r2, #0]
 80036c0:	8813      	ldrh	r3, [r2, #0]
 80036c2:	ea6f 4343 	mvn.w	r3, r3, lsl #17
 80036c6:	ea6f 4353 	mvn.w	r3, r3, lsr #17
 80036ca:	b29b      	uxth	r3, r3
 80036cc:	8013      	strh	r3, [r2, #0]
 80036ce:	e727      	b.n	8003520 <USB_EPStartXfer+0x524>
 80036d0:	2b3e      	cmp	r3, #62	; 0x3e
 80036d2:	d805      	bhi.n	80036e0 <USB_EPStartXfer+0x6e4>
 80036d4:	0859      	lsrs	r1, r3, #1
 80036d6:	07df      	lsls	r7, r3, #31
 80036d8:	bf48      	it	mi
 80036da:	3101      	addmi	r1, #1
 80036dc:	0289      	lsls	r1, r1, #10
 80036de:	e7da      	b.n	8003696 <USB_EPStartXfer+0x69a>
 80036e0:	0958      	lsrs	r0, r3, #5
 80036e2:	4914      	ldr	r1, [pc, #80]	; (8003734 <USB_EPStartXfer+0x738>)
 80036e4:	06de      	lsls	r6, r3, #27
 80036e6:	bf08      	it	eq
 80036e8:	f100 30ff 	addeq.w	r0, r0, #4294967295
 80036ec:	ea41 2180 	orr.w	r1, r1, r0, lsl #10
 80036f0:	e7d1      	b.n	8003696 <USB_EPStartXfer+0x69a>
 80036f2:	2b3e      	cmp	r3, #62	; 0x3e
 80036f4:	d807      	bhi.n	8003706 <USB_EPStartXfer+0x70a>
 80036f6:	0859      	lsrs	r1, r3, #1
 80036f8:	07d8      	lsls	r0, r3, #31
 80036fa:	bf48      	it	mi
 80036fc:	3101      	addmi	r1, #1
 80036fe:	0289      	lsls	r1, r1, #10
 8003700:	b289      	uxth	r1, r1
 8003702:	8011      	strh	r1, [r2, #0]
 8003704:	e70c      	b.n	8003520 <USB_EPStartXfer+0x524>
 8003706:	0959      	lsrs	r1, r3, #5
 8003708:	06db      	lsls	r3, r3, #27
 800370a:	4b0a      	ldr	r3, [pc, #40]	; (8003734 <USB_EPStartXfer+0x738>)
 800370c:	bf08      	it	eq
 800370e:	f101 31ff 	addeq.w	r1, r1, #4294967295
 8003712:	ea43 2381 	orr.w	r3, r3, r1, lsl #10
 8003716:	e7d8      	b.n	80036ca <USB_EPStartXfer+0x6ce>
 8003718:	2901      	cmp	r1, #1
 800371a:	f47f af01 	bne.w	8003520 <USB_EPStartXfer+0x524>
 800371e:	f8b5 1050 	ldrh.w	r1, [r5, #80]	; 0x50
 8003722:	f205 4006 	addw	r0, r5, #1030	; 0x406
 8003726:	fa10 f181 	uxtah	r1, r0, r1
 800372a:	eb01 02c2 	add.w	r2, r1, r2, lsl #3
 800372e:	e7cc      	b.n	80036ca <USB_EPStartXfer+0x6ce>
 8003730:	2001      	movs	r0, #1
 8003732:	e493      	b.n	800305c <USB_EPStartXfer+0x60>
 8003734:	ffff8000 	.word	0xffff8000

08003738 <USB_ReadPMA>:
 8003738:	b5f0      	push	{r4, r5, r6, r7, lr}
 800373a:	f502 6280 	add.w	r2, r2, #1024	; 0x400
 800373e:	085e      	lsrs	r6, r3, #1
 8003740:	4410      	add	r0, r2
 8003742:	460d      	mov	r5, r1
 8003744:	4632      	mov	r2, r6
 8003746:	1a47      	subs	r7, r0, r1
 8003748:	197c      	adds	r4, r7, r5
 800374a:	3502      	adds	r5, #2
 800374c:	b932      	cbnz	r2, 800375c <USB_ReadPMA+0x24>
 800374e:	07db      	lsls	r3, r3, #31
 8003750:	bf44      	itt	mi
 8003752:	f830 3016 	ldrhmi.w	r3, [r0, r6, lsl #1]
 8003756:	f801 3016 	strbmi.w	r3, [r1, r6, lsl #1]
 800375a:	bdf0      	pop	{r4, r5, r6, r7, pc}
 800375c:	8824      	ldrh	r4, [r4, #0]
 800375e:	3a01      	subs	r2, #1
 8003760:	b2a4      	uxth	r4, r4
 8003762:	f805 4c02 	strb.w	r4, [r5, #-2]
 8003766:	0a24      	lsrs	r4, r4, #8
 8003768:	f805 4c01 	strb.w	r4, [r5, #-1]
 800376c:	e7ec      	b.n	8003748 <USB_ReadPMA+0x10>

0800376e <USBD_CDC_EP0_RxReady>:
 800376e:	b510      	push	{r4, lr}
 8003770:	f8d0 42bc 	ldr.w	r4, [r0, #700]	; 0x2bc
 8003774:	b184      	cbz	r4, 8003798 <USBD_CDC_EP0_RxReady+0x2a>
 8003776:	f8d0 32c0 	ldr.w	r3, [r0, #704]	; 0x2c0
 800377a:	b15b      	cbz	r3, 8003794 <USBD_CDC_EP0_RxReady+0x26>
 800377c:	f894 0200 	ldrb.w	r0, [r4, #512]	; 0x200
 8003780:	28ff      	cmp	r0, #255	; 0xff
 8003782:	d007      	beq.n	8003794 <USBD_CDC_EP0_RxReady+0x26>
 8003784:	689b      	ldr	r3, [r3, #8]
 8003786:	4621      	mov	r1, r4
 8003788:	f894 2201 	ldrb.w	r2, [r4, #513]	; 0x201
 800378c:	4798      	blx	r3
 800378e:	23ff      	movs	r3, #255	; 0xff
 8003790:	f884 3200 	strb.w	r3, [r4, #512]	; 0x200
 8003794:	2000      	movs	r0, #0
 8003796:	e000      	b.n	800379a <USBD_CDC_EP0_RxReady+0x2c>
 8003798:	2003      	movs	r0, #3
 800379a:	bd10      	pop	{r4, pc}

0800379c <USBD_CDC_GetFSCfgDesc>:
 800379c:	2343      	movs	r3, #67	; 0x43
 800379e:	8003      	strh	r3, [r0, #0]
 80037a0:	4800      	ldr	r0, [pc, #0]	; (80037a4 <USBD_CDC_GetFSCfgDesc+0x8>)
 80037a2:	4770      	bx	lr
 80037a4:	20000044 	.word	0x20000044

080037a8 <USBD_CDC_GetHSCfgDesc>:
 80037a8:	2343      	movs	r3, #67	; 0x43
 80037aa:	8003      	strh	r3, [r0, #0]
 80037ac:	4800      	ldr	r0, [pc, #0]	; (80037b0 <USBD_CDC_GetHSCfgDesc+0x8>)
 80037ae:	4770      	bx	lr
 80037b0:	20000088 	.word	0x20000088

080037b4 <USBD_CDC_GetOtherSpeedCfgDesc>:
 80037b4:	2343      	movs	r3, #67	; 0x43
 80037b6:	8003      	strh	r3, [r0, #0]
 80037b8:	4800      	ldr	r0, [pc, #0]	; (80037bc <USBD_CDC_GetOtherSpeedCfgDesc+0x8>)
 80037ba:	4770      	bx	lr
 80037bc:	200000d8 	.word	0x200000d8

080037c0 <USBD_CDC_GetDeviceQualifierDescriptor>:
 80037c0:	230a      	movs	r3, #10
 80037c2:	8003      	strh	r3, [r0, #0]
 80037c4:	4800      	ldr	r0, [pc, #0]	; (80037c8 <USBD_CDC_GetDeviceQualifierDescriptor+0x8>)
 80037c6:	4770      	bx	lr
 80037c8:	200000cc 	.word	0x200000cc

080037cc <USBD_CDC_DataOut>:
 80037cc:	b538      	push	{r3, r4, r5, lr}
 80037ce:	f8d0 42bc 	ldr.w	r4, [r0, #700]	; 0x2bc
 80037d2:	4605      	mov	r5, r0
 80037d4:	b16c      	cbz	r4, 80037f2 <USBD_CDC_DataOut+0x26>
 80037d6:	f000 ff6d 	bl	80046b4 <USBD_LL_GetRxDataSize>
 80037da:	f8d5 32c0 	ldr.w	r3, [r5, #704]	; 0x2c0
 80037de:	f8c4 020c 	str.w	r0, [r4, #524]	; 0x20c
 80037e2:	68db      	ldr	r3, [r3, #12]
 80037e4:	f8d4 0204 	ldr.w	r0, [r4, #516]	; 0x204
 80037e8:	f504 7103 	add.w	r1, r4, #524	; 0x20c
 80037ec:	4798      	blx	r3
 80037ee:	2000      	movs	r0, #0
 80037f0:	bd38      	pop	{r3, r4, r5, pc}
 80037f2:	2003      	movs	r0, #3
 80037f4:	e7fc      	b.n	80037f0 <USBD_CDC_DataOut+0x24>

080037f6 <USBD_CDC_DataIn>:
 80037f6:	b5f8      	push	{r3, r4, r5, r6, r7, lr}
 80037f8:	f8d0 62bc 	ldr.w	r6, [r0, #700]	; 0x2bc
 80037fc:	4605      	mov	r5, r0
 80037fe:	460a      	mov	r2, r1
 8003800:	b33e      	cbz	r6, 8003852 <USBD_CDC_DataIn+0x5c>
 8003802:	2714      	movs	r7, #20
 8003804:	fb07 0701 	mla	r7, r7, r1, r0
 8003808:	69bb      	ldr	r3, [r7, #24]
 800380a:	b19b      	cbz	r3, 8003834 <USBD_CDC_DataIn+0x3e>
 800380c:	f04f 0c28 	mov.w	ip, #40	; 0x28
 8003810:	f8d0 42c4 	ldr.w	r4, [r0, #708]	; 0x2c4
 8003814:	fb0c 4401 	mla	r4, ip, r1, r4
 8003818:	f8d4 c038 	ldr.w	ip, [r4, #56]	; 0x38
 800381c:	fbb3 f4fc 	udiv	r4, r3, ip
 8003820:	fb0c 3414 	mls	r4, ip, r4, r3
 8003824:	b934      	cbnz	r4, 8003834 <USBD_CDC_DataIn+0x3e>
 8003826:	4623      	mov	r3, r4
 8003828:	4622      	mov	r2, r4
 800382a:	61bc      	str	r4, [r7, #24]
 800382c:	f000 ff26 	bl	800467c <USBD_LL_Transmit>
 8003830:	4620      	mov	r0, r4
 8003832:	e00d      	b.n	8003850 <USBD_CDC_DataIn+0x5a>
 8003834:	2700      	movs	r7, #0
 8003836:	f8d5 32c0 	ldr.w	r3, [r5, #704]	; 0x2c0
 800383a:	f8c6 7214 	str.w	r7, [r6, #532]	; 0x214
 800383e:	691c      	ldr	r4, [r3, #16]
 8003840:	2c00      	cmp	r4, #0
 8003842:	d0f5      	beq.n	8003830 <USBD_CDC_DataIn+0x3a>
 8003844:	f8d6 0208 	ldr.w	r0, [r6, #520]	; 0x208
 8003848:	f506 7104 	add.w	r1, r6, #528	; 0x210
 800384c:	47a0      	blx	r4
 800384e:	4638      	mov	r0, r7
 8003850:	bdf8      	pop	{r3, r4, r5, r6, r7, pc}
 8003852:	2003      	movs	r0, #3
 8003854:	e7fc      	b.n	8003850 <USBD_CDC_DataIn+0x5a>
	...

08003858 <USBD_CDC_Setup>:
 8003858:	e92d 43f7 	stmdb	sp!, {r0, r1, r2, r4, r5, r6, r7, r8, r9, lr}
 800385c:	f04f 0800 	mov.w	r8, #0
 8003860:	f8d0 72bc 	ldr.w	r7, [r0, #700]	; 0x2bc
 8003864:	4605      	mov	r5, r0
 8003866:	460e      	mov	r6, r1
 8003868:	f88d 8005 	strb.w	r8, [sp, #5]
 800386c:	f8ad 8006 	strh.w	r8, [sp, #6]
 8003870:	2f00      	cmp	r7, #0
 8003872:	d06a      	beq.n	800394a <USBD_CDC_Setup+0xf2>
 8003874:	780a      	ldrb	r2, [r1, #0]
 8003876:	f012 0460 	ands.w	r4, r2, #96	; 0x60
 800387a:	d02b      	beq.n	80038d4 <USBD_CDC_Setup+0x7c>
 800387c:	2c20      	cmp	r4, #32
 800387e:	d160      	bne.n	8003942 <USBD_CDC_Setup+0xea>
 8003880:	88cc      	ldrh	r4, [r1, #6]
 8003882:	784b      	ldrb	r3, [r1, #1]
 8003884:	b1fc      	cbz	r4, 80038c6 <USBD_CDC_Setup+0x6e>
 8003886:	0612      	lsls	r2, r2, #24
 8003888:	d514      	bpl.n	80038b4 <USBD_CDC_Setup+0x5c>
 800388a:	f8d0 22c0 	ldr.w	r2, [r0, #704]	; 0x2c0
 800388e:	4639      	mov	r1, r7
 8003890:	f8d2 9008 	ldr.w	r9, [r2, #8]
 8003894:	4618      	mov	r0, r3
 8003896:	4622      	mov	r2, r4
 8003898:	47c8      	blx	r9
 800389a:	88f2      	ldrh	r2, [r6, #6]
 800389c:	4639      	mov	r1, r7
 800389e:	2a07      	cmp	r2, #7
 80038a0:	bf28      	it	cs
 80038a2:	2207      	movcs	r2, #7
 80038a4:	4628      	mov	r0, r5
 80038a6:	f000 fc83 	bl	80041b0 <USBD_CtlSendData>
 80038aa:	4644      	mov	r4, r8
 80038ac:	4620      	mov	r0, r4
 80038ae:	b003      	add	sp, #12
 80038b0:	e8bd 83f0 	ldmia.w	sp!, {r4, r5, r6, r7, r8, r9, pc}
 80038b4:	4622      	mov	r2, r4
 80038b6:	4639      	mov	r1, r7
 80038b8:	f887 3200 	strb.w	r3, [r7, #512]	; 0x200
 80038bc:	f887 4201 	strb.w	r4, [r7, #513]	; 0x201
 80038c0:	f000 fc8b 	bl	80041da <USBD_CtlPrepareRx>
 80038c4:	e7f1      	b.n	80038aa <USBD_CDC_Setup+0x52>
 80038c6:	f8d0 22c0 	ldr.w	r2, [r0, #704]	; 0x2c0
 80038ca:	4618      	mov	r0, r3
 80038cc:	6895      	ldr	r5, [r2, #8]
 80038ce:	4622      	mov	r2, r4
 80038d0:	47a8      	blx	r5
 80038d2:	e7eb      	b.n	80038ac <USBD_CDC_Setup+0x54>
 80038d4:	784f      	ldrb	r7, [r1, #1]
 80038d6:	2f0b      	cmp	r7, #11
 80038d8:	d833      	bhi.n	8003942 <USBD_CDC_Setup+0xea>
 80038da:	a301      	add	r3, pc, #4	; (adr r3, 80038e0 <USBD_CDC_Setup+0x88>)
 80038dc:	f853 f027 	ldr.w	pc, [r3, r7, lsl #2]
 80038e0:	08003911 	.word	0x08003911
 80038e4:	080038ad 	.word	0x080038ad
 80038e8:	08003943 	.word	0x08003943
 80038ec:	08003943 	.word	0x08003943
 80038f0:	08003943 	.word	0x08003943
 80038f4:	08003943 	.word	0x08003943
 80038f8:	08003943 	.word	0x08003943
 80038fc:	08003943 	.word	0x08003943
 8003900:	08003943 	.word	0x08003943
 8003904:	08003943 	.word	0x08003943
 8003908:	08003927 	.word	0x08003927
 800390c:	0800393b 	.word	0x0800393b
 8003910:	f890 329c 	ldrb.w	r3, [r0, #668]	; 0x29c
 8003914:	2b03      	cmp	r3, #3
 8003916:	d114      	bne.n	8003942 <USBD_CDC_Setup+0xea>
 8003918:	2202      	movs	r2, #2
 800391a:	f10d 0106 	add.w	r1, sp, #6
 800391e:	f000 fc47 	bl	80041b0 <USBD_CtlSendData>
 8003922:	463c      	mov	r4, r7
 8003924:	e7c2      	b.n	80038ac <USBD_CDC_Setup+0x54>
 8003926:	f890 329c 	ldrb.w	r3, [r0, #668]	; 0x29c
 800392a:	2b03      	cmp	r3, #3
 800392c:	d109      	bne.n	8003942 <USBD_CDC_Setup+0xea>
 800392e:	2201      	movs	r2, #1
 8003930:	f10d 0105 	add.w	r1, sp, #5
 8003934:	f000 fc3c 	bl	80041b0 <USBD_CtlSendData>
 8003938:	e7b8      	b.n	80038ac <USBD_CDC_Setup+0x54>
 800393a:	f890 329c 	ldrb.w	r3, [r0, #668]	; 0x29c
 800393e:	2b03      	cmp	r3, #3
 8003940:	d0b4      	beq.n	80038ac <USBD_CDC_Setup+0x54>
 8003942:	4631      	mov	r1, r6
 8003944:	4628      	mov	r0, r5
 8003946:	f000 fc0c 	bl	8004162 <USBD_CtlError>
 800394a:	2403      	movs	r4, #3
 800394c:	e7ae      	b.n	80038ac <USBD_CDC_Setup+0x54>
 800394e:	bf00      	nop

08003950 <USBD_CDC_DeInit>:
 8003950:	b538      	push	{r3, r4, r5, lr}
 8003952:	4604      	mov	r4, r0
 8003954:	2500      	movs	r5, #0
 8003956:	2181      	movs	r1, #129	; 0x81
 8003958:	f000 fe46 	bl	80045e8 <USBD_LL_CloseEP>
 800395c:	2101      	movs	r1, #1
 800395e:	4620      	mov	r0, r4
 8003960:	8725      	strh	r5, [r4, #56]	; 0x38
 8003962:	f000 fe41 	bl	80045e8 <USBD_LL_CloseEP>
 8003966:	2182      	movs	r1, #130	; 0x82
 8003968:	4620      	mov	r0, r4
 800396a:	f8a4 5178 	strh.w	r5, [r4, #376]	; 0x178
 800396e:	f000 fe3b 	bl	80045e8 <USBD_LL_CloseEP>
 8003972:	f8d4 32bc 	ldr.w	r3, [r4, #700]	; 0x2bc
 8003976:	64e5      	str	r5, [r4, #76]	; 0x4c
 8003978:	b14b      	cbz	r3, 800398e <USBD_CDC_DeInit+0x3e>
 800397a:	f8d4 32c0 	ldr.w	r3, [r4, #704]	; 0x2c0
 800397e:	685b      	ldr	r3, [r3, #4]
 8003980:	4798      	blx	r3
 8003982:	f8d4 02bc 	ldr.w	r0, [r4, #700]	; 0x2bc
 8003986:	f000 fec1 	bl	800470c <USBD_static_free>
 800398a:	f8c4 52bc 	str.w	r5, [r4, #700]	; 0x2bc
 800398e:	2000      	movs	r0, #0
 8003990:	bd38      	pop	{r3, r4, r5, pc}

08003992 <USBD_CDC_Init>:
 8003992:	b5f8      	push	{r3, r4, r5, r6, r7, lr}
 8003994:	4604      	mov	r4, r0
 8003996:	f44f 7007 	mov.w	r0, #540	; 0x21c
 800399a:	f000 feb3 	bl	8004704 <USBD_static_malloc>
 800399e:	4605      	mov	r5, r0
 80039a0:	f8c4 02bc 	str.w	r0, [r4, #700]	; 0x2bc
 80039a4:	b910      	cbnz	r0, 80039ac <USBD_CDC_Init+0x1a>
 80039a6:	2602      	movs	r6, #2
 80039a8:	4630      	mov	r0, r6
 80039aa:	bdf8      	pop	{r3, r4, r5, r6, r7, pc}
 80039ac:	7c23      	ldrb	r3, [r4, #16]
 80039ae:	bb8b      	cbnz	r3, 8003a14 <USBD_CDC_Init+0x82>
 80039b0:	f44f 7300 	mov.w	r3, #512	; 0x200
 80039b4:	2202      	movs	r2, #2
 80039b6:	2181      	movs	r1, #129	; 0x81
 80039b8:	4620      	mov	r0, r4
 80039ba:	2601      	movs	r6, #1
 80039bc:	f000 fe04 	bl	80045c8 <USBD_LL_OpenEP>
 80039c0:	f44f 7300 	mov.w	r3, #512	; 0x200
 80039c4:	8726      	strh	r6, [r4, #56]	; 0x38
 80039c6:	4631      	mov	r1, r6
 80039c8:	2202      	movs	r2, #2
 80039ca:	4620      	mov	r0, r4
 80039cc:	f000 fdfc 	bl	80045c8 <USBD_LL_OpenEP>
 80039d0:	2310      	movs	r3, #16
 80039d2:	2203      	movs	r2, #3
 80039d4:	2182      	movs	r1, #130	; 0x82
 80039d6:	f8a4 6178 	strh.w	r6, [r4, #376]	; 0x178
 80039da:	f8a4 304e 	strh.w	r3, [r4, #78]	; 0x4e
 80039de:	4620      	mov	r0, r4
 80039e0:	2308      	movs	r3, #8
 80039e2:	f000 fdf1 	bl	80045c8 <USBD_LL_OpenEP>
 80039e6:	2101      	movs	r1, #1
 80039e8:	2700      	movs	r7, #0
 80039ea:	f8d4 32c0 	ldr.w	r3, [r4, #704]	; 0x2c0
 80039ee:	f8a4 104c 	strh.w	r1, [r4, #76]	; 0x4c
 80039f2:	681b      	ldr	r3, [r3, #0]
 80039f4:	4798      	blx	r3
 80039f6:	f8c5 7214 	str.w	r7, [r5, #532]	; 0x214
 80039fa:	f8c5 7218 	str.w	r7, [r5, #536]	; 0x218
 80039fe:	7c26      	ldrb	r6, [r4, #16]
 8003a00:	2101      	movs	r1, #1
 8003a02:	b98e      	cbnz	r6, 8003a28 <USBD_CDC_Init+0x96>
 8003a04:	f44f 7300 	mov.w	r3, #512	; 0x200
 8003a08:	4620      	mov	r0, r4
 8003a0a:	f8d5 2204 	ldr.w	r2, [r5, #516]	; 0x204
 8003a0e:	f000 fe43 	bl	8004698 <USBD_LL_PrepareReceive>
 8003a12:	e7c9      	b.n	80039a8 <USBD_CDC_Init+0x16>
 8003a14:	2601      	movs	r6, #1
 8003a16:	2340      	movs	r3, #64	; 0x40
 8003a18:	2202      	movs	r2, #2
 8003a1a:	2181      	movs	r1, #129	; 0x81
 8003a1c:	4620      	mov	r0, r4
 8003a1e:	f000 fdd3 	bl	80045c8 <USBD_LL_OpenEP>
 8003a22:	2340      	movs	r3, #64	; 0x40
 8003a24:	8726      	strh	r6, [r4, #56]	; 0x38
 8003a26:	e7ce      	b.n	80039c6 <USBD_CDC_Init+0x34>
 8003a28:	2340      	movs	r3, #64	; 0x40
 8003a2a:	4620      	mov	r0, r4
 8003a2c:	f8d5 2204 	ldr.w	r2, [r5, #516]	; 0x204
 8003a30:	f000 fe32 	bl	8004698 <USBD_LL_PrepareReceive>
 8003a34:	463e      	mov	r6, r7
 8003a36:	e7b7      	b.n	80039a8 <USBD_CDC_Init+0x16>

08003a38 <USBD_CDC_RegisterInterface>:
 8003a38:	b119      	cbz	r1, 8003a42 <USBD_CDC_RegisterInterface+0xa>
 8003a3a:	f8c0 12c0 	str.w	r1, [r0, #704]	; 0x2c0
 8003a3e:	2000      	movs	r0, #0
 8003a40:	4770      	bx	lr
 8003a42:	2003      	movs	r0, #3
 8003a44:	4770      	bx	lr

08003a46 <USBD_CDC_SetTxBuffer>:
 8003a46:	f8d0 32bc 	ldr.w	r3, [r0, #700]	; 0x2bc
 8003a4a:	b12b      	cbz	r3, 8003a58 <USBD_CDC_SetTxBuffer+0x12>
 8003a4c:	2000      	movs	r0, #0
 8003a4e:	f8c3 1208 	str.w	r1, [r3, #520]	; 0x208
 8003a52:	f8c3 2210 	str.w	r2, [r3, #528]	; 0x210
 8003a56:	4770      	bx	lr
 8003a58:	2003      	movs	r0, #3
 8003a5a:	4770      	bx	lr

08003a5c <USBD_CDC_SetRxBuffer>:
 8003a5c:	f8d0 32bc 	ldr.w	r3, [r0, #700]	; 0x2bc
 8003a60:	b11b      	cbz	r3, 8003a6a <USBD_CDC_SetRxBuffer+0xe>
 8003a62:	2000      	movs	r0, #0
 8003a64:	f8c3 1204 	str.w	r1, [r3, #516]	; 0x204
 8003a68:	4770      	bx	lr
 8003a6a:	2003      	movs	r0, #3
 8003a6c:	4770      	bx	lr

08003a6e <USBD_CDC_ReceivePacket>:
 8003a6e:	f8d0 22bc 	ldr.w	r2, [r0, #700]	; 0x2bc
 8003a72:	b510      	push	{r4, lr}
 8003a74:	b182      	cbz	r2, 8003a98 <USBD_CDC_ReceivePacket+0x2a>
 8003a76:	7c04      	ldrb	r4, [r0, #16]
 8003a78:	f8d2 2204 	ldr.w	r2, [r2, #516]	; 0x204
 8003a7c:	b934      	cbnz	r4, 8003a8c <USBD_CDC_ReceivePacket+0x1e>
 8003a7e:	f44f 7300 	mov.w	r3, #512	; 0x200
 8003a82:	2101      	movs	r1, #1
 8003a84:	f000 fe08 	bl	8004698 <USBD_LL_PrepareReceive>
 8003a88:	4620      	mov	r0, r4
 8003a8a:	bd10      	pop	{r4, pc}
 8003a8c:	2340      	movs	r3, #64	; 0x40
 8003a8e:	2101      	movs	r1, #1
 8003a90:	f000 fe02 	bl	8004698 <USBD_LL_PrepareReceive>
 8003a94:	2400      	movs	r4, #0
 8003a96:	e7f7      	b.n	8003a88 <USBD_CDC_ReceivePacket+0x1a>
 8003a98:	2403      	movs	r4, #3
 8003a9a:	e7f5      	b.n	8003a88 <USBD_CDC_ReceivePacket+0x1a>

08003a9c <USBD_Init>:
 8003a9c:	b178      	cbz	r0, 8003abe <USBD_Init+0x22>
 8003a9e:	2300      	movs	r3, #0
 8003aa0:	f8c0 32b8 	str.w	r3, [r0, #696]	; 0x2b8
 8003aa4:	f8c0 32c0 	str.w	r3, [r0, #704]	; 0x2c0
 8003aa8:	f8c0 32cc 	str.w	r3, [r0, #716]	; 0x2cc
 8003aac:	b109      	cbz	r1, 8003ab2 <USBD_Init+0x16>
 8003aae:	f8c0 12b4 	str.w	r1, [r0, #692]	; 0x2b4
 8003ab2:	2301      	movs	r3, #1
 8003ab4:	7002      	strb	r2, [r0, #0]
 8003ab6:	f880 329c 	strb.w	r3, [r0, #668]	; 0x29c
 8003aba:	f000 bd31 	b.w	8004520 <USBD_LL_Init>
 8003abe:	2003      	movs	r0, #3
 8003ac0:	4770      	bx	lr

08003ac2 <USBD_RegisterClass>:
 8003ac2:	b537      	push	{r0, r1, r2, r4, r5, lr}
 8003ac4:	2500      	movs	r5, #0
 8003ac6:	4604      	mov	r4, r0
 8003ac8:	f8ad 5006 	strh.w	r5, [sp, #6]
 8003acc:	b159      	cbz	r1, 8003ae6 <USBD_RegisterClass+0x24>
 8003ace:	6acb      	ldr	r3, [r1, #44]	; 0x2c
 8003ad0:	f8c0 12b8 	str.w	r1, [r0, #696]	; 0x2b8
 8003ad4:	b14b      	cbz	r3, 8003aea <USBD_RegisterClass+0x28>
 8003ad6:	f10d 0006 	add.w	r0, sp, #6
 8003ada:	4798      	blx	r3
 8003adc:	f8c4 02cc 	str.w	r0, [r4, #716]	; 0x2cc
 8003ae0:	4628      	mov	r0, r5
 8003ae2:	b003      	add	sp, #12
 8003ae4:	bd30      	pop	{r4, r5, pc}
 8003ae6:	2003      	movs	r0, #3
 8003ae8:	e7fb      	b.n	8003ae2 <USBD_RegisterClass+0x20>
 8003aea:	4618      	mov	r0, r3
 8003aec:	e7f9      	b.n	8003ae2 <USBD_RegisterClass+0x20>

08003aee <USBD_Start>:
 8003aee:	f000 bd5d 	b.w	80045ac <USBD_LL_Start>

08003af2 <USBD_SetClassConfig>:
 8003af2:	f8d0 32b8 	ldr.w	r3, [r0, #696]	; 0x2b8
 8003af6:	b10b      	cbz	r3, 8003afc <USBD_SetClassConfig+0xa>
 8003af8:	681b      	ldr	r3, [r3, #0]
 8003afa:	4718      	bx	r3
 8003afc:	2003      	movs	r0, #3
 8003afe:	4770      	bx	lr

08003b00 <USBD_ClrClassConfig>:
 8003b00:	b508      	push	{r3, lr}
 8003b02:	f8d0 32b8 	ldr.w	r3, [r0, #696]	; 0x2b8
 8003b06:	b10b      	cbz	r3, 8003b0c <USBD_ClrClassConfig+0xc>
 8003b08:	685b      	ldr	r3, [r3, #4]
 8003b0a:	4798      	blx	r3
 8003b0c:	2000      	movs	r0, #0
 8003b0e:	bd08      	pop	{r3, pc}

08003b10 <USBD_LL_SetupStage>:
 8003b10:	b538      	push	{r3, r4, r5, lr}
 8003b12:	f200 25aa 	addw	r5, r0, #682	; 0x2aa
 8003b16:	4604      	mov	r4, r0
 8003b18:	4628      	mov	r0, r5
 8003b1a:	f000 fb0e 	bl	800413a <USBD_ParseSetupRequest>
 8003b1e:	2301      	movs	r3, #1
 8003b20:	f894 12aa 	ldrb.w	r1, [r4, #682]	; 0x2aa
 8003b24:	f8c4 3294 	str.w	r3, [r4, #660]	; 0x294
 8003b28:	f8b4 32b0 	ldrh.w	r3, [r4, #688]	; 0x2b0
 8003b2c:	f8c4 3298 	str.w	r3, [r4, #664]	; 0x298
 8003b30:	f001 031f 	and.w	r3, r1, #31
 8003b34:	2b01      	cmp	r3, #1
 8003b36:	d008      	beq.n	8003b4a <USBD_LL_SetupStage+0x3a>
 8003b38:	2b02      	cmp	r3, #2
 8003b3a:	d00c      	beq.n	8003b56 <USBD_LL_SetupStage+0x46>
 8003b3c:	b98b      	cbnz	r3, 8003b62 <USBD_LL_SetupStage+0x52>
 8003b3e:	4629      	mov	r1, r5
 8003b40:	4620      	mov	r0, r4
 8003b42:	e8bd 4038 	ldmia.w	sp!, {r3, r4, r5, lr}
 8003b46:	f000 b8f5 	b.w	8003d34 <USBD_StdDevReq>
 8003b4a:	4629      	mov	r1, r5
 8003b4c:	4620      	mov	r0, r4
 8003b4e:	e8bd 4038 	ldmia.w	sp!, {r3, r4, r5, lr}
 8003b52:	f000 ba3b 	b.w	8003fcc <USBD_StdItfReq>
 8003b56:	4629      	mov	r1, r5
 8003b58:	4620      	mov	r0, r4
 8003b5a:	e8bd 4038 	ldmia.w	sp!, {r3, r4, r5, lr}
 8003b5e:	f000 ba5b 	b.w	8004018 <USBD_StdEPReq>
 8003b62:	4620      	mov	r0, r4
 8003b64:	e8bd 4038 	ldmia.w	sp!, {r3, r4, r5, lr}
 8003b68:	f001 0180 	and.w	r1, r1, #128	; 0x80
 8003b6c:	f000 bd4a 	b.w	8004604 <USBD_LL_StallEP>

08003b70 <USBD_LL_DataOutStage>:
 8003b70:	b570      	push	{r4, r5, r6, lr}
 8003b72:	4604      	mov	r4, r0
 8003b74:	4615      	mov	r5, r2
 8003b76:	b9f9      	cbnz	r1, 8003bb8 <USBD_LL_DataOutStage+0x48>
 8003b78:	f8d0 3294 	ldr.w	r3, [r0, #660]	; 0x294
 8003b7c:	2b03      	cmp	r3, #3
 8003b7e:	d10c      	bne.n	8003b9a <USBD_LL_DataOutStage+0x2a>
 8003b80:	e9d0 3257 	ldrd	r3, r2, [r0, #348]	; 0x15c
 8003b84:	4293      	cmp	r3, r2
 8003b86:	d90a      	bls.n	8003b9e <USBD_LL_DataOutStage+0x2e>
 8003b88:	1a9b      	subs	r3, r3, r2
 8003b8a:	429a      	cmp	r2, r3
 8003b8c:	bf28      	it	cs
 8003b8e:	461a      	movcs	r2, r3
 8003b90:	4629      	mov	r1, r5
 8003b92:	f8c0 315c 	str.w	r3, [r0, #348]	; 0x15c
 8003b96:	f000 fb2d 	bl	80041f4 <USBD_CtlContinueRx>
 8003b9a:	2000      	movs	r0, #0
 8003b9c:	bd70      	pop	{r4, r5, r6, pc}
 8003b9e:	f890 329c 	ldrb.w	r3, [r0, #668]	; 0x29c
 8003ba2:	2b03      	cmp	r3, #3
 8003ba4:	d104      	bne.n	8003bb0 <USBD_LL_DataOutStage+0x40>
 8003ba6:	f8d0 32b8 	ldr.w	r3, [r0, #696]	; 0x2b8
 8003baa:	691b      	ldr	r3, [r3, #16]
 8003bac:	b103      	cbz	r3, 8003bb0 <USBD_LL_DataOutStage+0x40>
 8003bae:	4798      	blx	r3
 8003bb0:	4620      	mov	r0, r4
 8003bb2:	f000 fb27 	bl	8004204 <USBD_CtlSendStatus>
 8003bb6:	e7f0      	b.n	8003b9a <USBD_LL_DataOutStage+0x2a>
 8003bb8:	f890 329c 	ldrb.w	r3, [r0, #668]	; 0x29c
 8003bbc:	2b03      	cmp	r3, #3
 8003bbe:	d1ec      	bne.n	8003b9a <USBD_LL_DataOutStage+0x2a>
 8003bc0:	f8d0 32b8 	ldr.w	r3, [r0, #696]	; 0x2b8
 8003bc4:	699b      	ldr	r3, [r3, #24]
 8003bc6:	2b00      	cmp	r3, #0
 8003bc8:	d0e7      	beq.n	8003b9a <USBD_LL_DataOutStage+0x2a>
 8003bca:	e8bd 4070 	ldmia.w	sp!, {r4, r5, r6, lr}
 8003bce:	4718      	bx	r3

08003bd0 <USBD_LL_DataInStage>:
 8003bd0:	b573      	push	{r0, r1, r4, r5, r6, lr}
 8003bd2:	4604      	mov	r4, r0
 8003bd4:	4616      	mov	r6, r2
 8003bd6:	2900      	cmp	r1, #0
 8003bd8:	d13f      	bne.n	8003c5a <USBD_LL_DataInStage+0x8a>
 8003bda:	f8d0 2294 	ldr.w	r2, [r0, #660]	; 0x294
 8003bde:	2a02      	cmp	r2, #2
 8003be0:	d10f      	bne.n	8003c02 <USBD_LL_DataInStage+0x32>
 8003be2:	e9d0 5207 	ldrd	r5, r2, [r0, #28]
 8003be6:	4295      	cmp	r5, r2
 8003be8:	d915      	bls.n	8003c16 <USBD_LL_DataInStage+0x46>
 8003bea:	1aaa      	subs	r2, r5, r2
 8003bec:	9101      	str	r1, [sp, #4]
 8003bee:	61c2      	str	r2, [r0, #28]
 8003bf0:	4631      	mov	r1, r6
 8003bf2:	f000 faea 	bl	80041ca <USBD_CtlContinueSendData>
 8003bf6:	9b01      	ldr	r3, [sp, #4]
 8003bf8:	461a      	mov	r2, r3
 8003bfa:	4619      	mov	r1, r3
 8003bfc:	4620      	mov	r0, r4
 8003bfe:	f000 fd4b 	bl	8004698 <USBD_LL_PrepareReceive>
 8003c02:	f894 32a0 	ldrb.w	r3, [r4, #672]	; 0x2a0
 8003c06:	2b01      	cmp	r3, #1
 8003c08:	d102      	bne.n	8003c10 <USBD_LL_DataInStage+0x40>
 8003c0a:	2300      	movs	r3, #0
 8003c0c:	f884 32a0 	strb.w	r3, [r4, #672]	; 0x2a0
 8003c10:	2000      	movs	r0, #0
 8003c12:	b002      	add	sp, #8
 8003c14:	bd70      	pop	{r4, r5, r6, pc}
 8003c16:	d10e      	bne.n	8003c36 <USBD_LL_DataInStage+0x66>
 8003c18:	6982      	ldr	r2, [r0, #24]
 8003c1a:	4295      	cmp	r5, r2
 8003c1c:	d80b      	bhi.n	8003c36 <USBD_LL_DataInStage+0x66>
 8003c1e:	f8d0 5298 	ldr.w	r5, [r0, #664]	; 0x298
 8003c22:	42aa      	cmp	r2, r5
 8003c24:	d207      	bcs.n	8003c36 <USBD_LL_DataInStage+0x66>
 8003c26:	460a      	mov	r2, r1
 8003c28:	9101      	str	r1, [sp, #4]
 8003c2a:	f000 face 	bl	80041ca <USBD_CtlContinueSendData>
 8003c2e:	9b01      	ldr	r3, [sp, #4]
 8003c30:	f8c4 3298 	str.w	r3, [r4, #664]	; 0x298
 8003c34:	e7e0      	b.n	8003bf8 <USBD_LL_DataInStage+0x28>
 8003c36:	f894 329c 	ldrb.w	r3, [r4, #668]	; 0x29c
 8003c3a:	2b03      	cmp	r3, #3
 8003c3c:	d105      	bne.n	8003c4a <USBD_LL_DataInStage+0x7a>
 8003c3e:	f8d4 32b8 	ldr.w	r3, [r4, #696]	; 0x2b8
 8003c42:	68db      	ldr	r3, [r3, #12]
 8003c44:	b10b      	cbz	r3, 8003c4a <USBD_LL_DataInStage+0x7a>
 8003c46:	4620      	mov	r0, r4
 8003c48:	4798      	blx	r3
 8003c4a:	2180      	movs	r1, #128	; 0x80
 8003c4c:	4620      	mov	r0, r4
 8003c4e:	f000 fcd9 	bl	8004604 <USBD_LL_StallEP>
 8003c52:	4620      	mov	r0, r4
 8003c54:	f000 fae1 	bl	800421a <USBD_CtlReceiveStatus>
 8003c58:	e7d3      	b.n	8003c02 <USBD_LL_DataInStage+0x32>
 8003c5a:	f890 329c 	ldrb.w	r3, [r0, #668]	; 0x29c
 8003c5e:	2b03      	cmp	r3, #3
 8003c60:	d1d6      	bne.n	8003c10 <USBD_LL_DataInStage+0x40>
 8003c62:	f8d0 32b8 	ldr.w	r3, [r0, #696]	; 0x2b8
 8003c66:	695b      	ldr	r3, [r3, #20]
 8003c68:	2b00      	cmp	r3, #0
 8003c6a:	d0d1      	beq.n	8003c10 <USBD_LL_DataInStage+0x40>
 8003c6c:	b002      	add	sp, #8
 8003c6e:	e8bd 4070 	ldmia.w	sp!, {r4, r5, r6, lr}
 8003c72:	4718      	bx	r3

08003c74 <USBD_LL_Reset>:
 8003c74:	2301      	movs	r3, #1
 8003c76:	2100      	movs	r1, #0
 8003c78:	b570      	push	{r4, r5, r6, lr}
 8003c7a:	f880 329c 	strb.w	r3, [r0, #668]	; 0x29c
 8003c7e:	f8d0 32b8 	ldr.w	r3, [r0, #696]	; 0x2b8
 8003c82:	4604      	mov	r4, r0
 8003c84:	f8c0 1294 	str.w	r1, [r0, #660]	; 0x294
 8003c88:	6041      	str	r1, [r0, #4]
 8003c8a:	f8c0 12a4 	str.w	r1, [r0, #676]	; 0x2a4
 8003c8e:	b1db      	cbz	r3, 8003cc8 <USBD_LL_Reset+0x54>
 8003c90:	f8d0 22bc 	ldr.w	r2, [r0, #700]	; 0x2bc
 8003c94:	b112      	cbz	r2, 8003c9c <USBD_LL_Reset+0x28>
 8003c96:	685b      	ldr	r3, [r3, #4]
 8003c98:	b103      	cbz	r3, 8003c9c <USBD_LL_Reset+0x28>
 8003c9a:	4798      	blx	r3
 8003c9c:	2200      	movs	r2, #0
 8003c9e:	2540      	movs	r5, #64	; 0x40
 8003ca0:	2601      	movs	r6, #1
 8003ca2:	4611      	mov	r1, r2
 8003ca4:	2340      	movs	r3, #64	; 0x40
 8003ca6:	4620      	mov	r0, r4
 8003ca8:	f000 fc8e 	bl	80045c8 <USBD_LL_OpenEP>
 8003cac:	462b      	mov	r3, r5
 8003cae:	2200      	movs	r2, #0
 8003cb0:	2180      	movs	r1, #128	; 0x80
 8003cb2:	4620      	mov	r0, r4
 8003cb4:	f8a4 6164 	strh.w	r6, [r4, #356]	; 0x164
 8003cb8:	f8c4 5160 	str.w	r5, [r4, #352]	; 0x160
 8003cbc:	f000 fc84 	bl	80045c8 <USBD_LL_OpenEP>
 8003cc0:	2000      	movs	r0, #0
 8003cc2:	84a6      	strh	r6, [r4, #36]	; 0x24
 8003cc4:	6225      	str	r5, [r4, #32]
 8003cc6:	bd70      	pop	{r4, r5, r6, pc}
 8003cc8:	2003      	movs	r0, #3
 8003cca:	e7fc      	b.n	8003cc6 <USBD_LL_Reset+0x52>

08003ccc <USBD_LL_SetSpeed>:
 8003ccc:	7401      	strb	r1, [r0, #16]
 8003cce:	2000      	movs	r0, #0
 8003cd0:	4770      	bx	lr

08003cd2 <USBD_LL_Suspend>:
 8003cd2:	f890 329c 	ldrb.w	r3, [r0, #668]	; 0x29c
 8003cd6:	b2db      	uxtb	r3, r3
 8003cd8:	f880 329d 	strb.w	r3, [r0, #669]	; 0x29d
 8003cdc:	2304      	movs	r3, #4
 8003cde:	f880 329c 	strb.w	r3, [r0, #668]	; 0x29c
 8003ce2:	2000      	movs	r0, #0
 8003ce4:	4770      	bx	lr

08003ce6 <USBD_LL_Resume>:
 8003ce6:	f890 329c 	ldrb.w	r3, [r0, #668]	; 0x29c
 8003cea:	2b04      	cmp	r3, #4
 8003cec:	bf02      	ittt	eq
 8003cee:	f890 329d 	ldrbeq.w	r3, [r0, #669]	; 0x29d
 8003cf2:	b2db      	uxtbeq	r3, r3
 8003cf4:	f880 329c 	strbeq.w	r3, [r0, #668]	; 0x29c
 8003cf8:	2000      	movs	r0, #0
 8003cfa:	4770      	bx	lr

08003cfc <USBD_LL_SOF>:
 8003cfc:	f8d0 22b8 	ldr.w	r2, [r0, #696]	; 0x2b8
 8003d00:	b508      	push	{r3, lr}
 8003d02:	b142      	cbz	r2, 8003d16 <USBD_LL_SOF+0x1a>
 8003d04:	f890 329c 	ldrb.w	r3, [r0, #668]	; 0x29c
 8003d08:	2b03      	cmp	r3, #3
 8003d0a:	d102      	bne.n	8003d12 <USBD_LL_SOF+0x16>
 8003d0c:	69d3      	ldr	r3, [r2, #28]
 8003d0e:	b123      	cbz	r3, 8003d1a <USBD_LL_SOF+0x1e>
 8003d10:	4798      	blx	r3
 8003d12:	2000      	movs	r0, #0
 8003d14:	e000      	b.n	8003d18 <USBD_LL_SOF+0x1c>
 8003d16:	2003      	movs	r0, #3
 8003d18:	bd08      	pop	{r3, pc}
 8003d1a:	4618      	mov	r0, r3
 8003d1c:	e7fc      	b.n	8003d18 <USBD_LL_SOF+0x1c>

08003d1e <USBD_CtlError.constprop.0>:
 8003d1e:	b510      	push	{r4, lr}
 8003d20:	4604      	mov	r4, r0
 8003d22:	2180      	movs	r1, #128	; 0x80
 8003d24:	f000 fc6e 	bl	8004604 <USBD_LL_StallEP>
 8003d28:	4620      	mov	r0, r4
 8003d2a:	e8bd 4010 	ldmia.w	sp!, {r4, lr}
 8003d2e:	2100      	movs	r1, #0
 8003d30:	f000 bc68 	b.w	8004604 <USBD_LL_StallEP>

08003d34 <USBD_StdDevReq>:
 8003d34:	b5f7      	push	{r0, r1, r2, r4, r5, r6, r7, lr}
 8003d36:	780d      	ldrb	r5, [r1, #0]
 8003d38:	4604      	mov	r4, r0
 8003d3a:	f005 0560 	and.w	r5, r5, #96	; 0x60
 8003d3e:	2d20      	cmp	r5, #32
 8003d40:	460e      	mov	r6, r1
 8003d42:	d014      	beq.n	8003d6e <USBD_StdDevReq+0x3a>
 8003d44:	2d40      	cmp	r5, #64	; 0x40
 8003d46:	d012      	beq.n	8003d6e <USBD_StdDevReq+0x3a>
 8003d48:	2d00      	cmp	r5, #0
 8003d4a:	f040 8108 	bne.w	8003f5e <USBD_StdDevReq+0x22a>
 8003d4e:	784f      	ldrb	r7, [r1, #1]
 8003d50:	2f09      	cmp	r7, #9
 8003d52:	f200 8104 	bhi.w	8003f5e <USBD_StdDevReq+0x22a>
 8003d56:	e8df f017 	tbh	[pc, r7, lsl #1]
 8003d5a:	0109      	.short	0x0109
 8003d5c:	0102012b 	.word	0x0102012b
 8003d60:	01020121 	.word	0x01020121
 8003d64:	00140089 	.word	0x00140089
 8003d68:	00f10102 	.word	0x00f10102
 8003d6c:	00a5      	.short	0x00a5
 8003d6e:	f8d4 32b8 	ldr.w	r3, [r4, #696]	; 0x2b8
 8003d72:	4631      	mov	r1, r6
 8003d74:	4620      	mov	r0, r4
 8003d76:	689b      	ldr	r3, [r3, #8]
 8003d78:	4798      	blx	r3
 8003d7a:	4605      	mov	r5, r0
 8003d7c:	4628      	mov	r0, r5
 8003d7e:	b003      	add	sp, #12
 8003d80:	bdf0      	pop	{r4, r5, r6, r7, pc}
 8003d82:	2300      	movs	r3, #0
 8003d84:	f8ad 3006 	strh.w	r3, [sp, #6]
 8003d88:	884b      	ldrh	r3, [r1, #2]
 8003d8a:	0a1a      	lsrs	r2, r3, #8
 8003d8c:	3a01      	subs	r2, #1
 8003d8e:	2a0e      	cmp	r2, #14
 8003d90:	d80d      	bhi.n	8003dae <USBD_StdDevReq+0x7a>
 8003d92:	e8df f002 	tbb	[pc, r2]
 8003d96:	2910      	.short	0x2910
 8003d98:	560c0c36 	.word	0x560c0c36
 8003d9c:	0c0c0c60 	.word	0x0c0c0c60
 8003da0:	0c0c0c0c 	.word	0x0c0c0c0c
 8003da4:	08          	.byte	0x08
 8003da5:	00          	.byte	0x00
 8003da6:	f8d0 32b4 	ldr.w	r3, [r0, #692]	; 0x2b4
 8003daa:	69db      	ldr	r3, [r3, #28]
 8003dac:	b933      	cbnz	r3, 8003dbc <USBD_StdDevReq+0x88>
 8003dae:	4620      	mov	r0, r4
 8003db0:	f7ff ffb5 	bl	8003d1e <USBD_CtlError.constprop.0>
 8003db4:	e7e2      	b.n	8003d7c <USBD_StdDevReq+0x48>
 8003db6:	f8d0 32b4 	ldr.w	r3, [r0, #692]	; 0x2b4
 8003dba:	681b      	ldr	r3, [r3, #0]
 8003dbc:	7c20      	ldrb	r0, [r4, #16]
 8003dbe:	f10d 0106 	add.w	r1, sp, #6
 8003dc2:	4798      	blx	r3
 8003dc4:	88f2      	ldrh	r2, [r6, #6]
 8003dc6:	2a00      	cmp	r2, #0
 8003dc8:	f000 80ee 	beq.w	8003fa8 <USBD_StdDevReq+0x274>
 8003dcc:	f8bd 3006 	ldrh.w	r3, [sp, #6]
 8003dd0:	2b00      	cmp	r3, #0
 8003dd2:	d0ec      	beq.n	8003dae <USBD_StdDevReq+0x7a>
 8003dd4:	429a      	cmp	r2, r3
 8003dd6:	bf28      	it	cs
 8003dd8:	461a      	movcs	r2, r3
 8003dda:	4601      	mov	r1, r0
 8003ddc:	f8ad 2006 	strh.w	r2, [sp, #6]
 8003de0:	4620      	mov	r0, r4
 8003de2:	f000 f9e5 	bl	80041b0 <USBD_CtlSendData>
 8003de6:	e7c9      	b.n	8003d7c <USBD_StdDevReq+0x48>
 8003de8:	7c02      	ldrb	r2, [r0, #16]
 8003dea:	f8d0 32b8 	ldr.w	r3, [r0, #696]	; 0x2b8
 8003dee:	b932      	cbnz	r2, 8003dfe <USBD_StdDevReq+0xca>
 8003df0:	6a9b      	ldr	r3, [r3, #40]	; 0x28
 8003df2:	f10d 0006 	add.w	r0, sp, #6
 8003df6:	4798      	blx	r3
 8003df8:	2302      	movs	r3, #2
 8003dfa:	7043      	strb	r3, [r0, #1]
 8003dfc:	e7e2      	b.n	8003dc4 <USBD_StdDevReq+0x90>
 8003dfe:	6adb      	ldr	r3, [r3, #44]	; 0x2c
 8003e00:	e7f7      	b.n	8003df2 <USBD_StdDevReq+0xbe>
 8003e02:	b2db      	uxtb	r3, r3
 8003e04:	2b05      	cmp	r3, #5
 8003e06:	d8d2      	bhi.n	8003dae <USBD_StdDevReq+0x7a>
 8003e08:	e8df f003 	tbb	[pc, r3]
 8003e0c:	0f0b0703 	.word	0x0f0b0703
 8003e10:	1713      	.short	0x1713
 8003e12:	f8d0 32b4 	ldr.w	r3, [r0, #692]	; 0x2b4
 8003e16:	685b      	ldr	r3, [r3, #4]
 8003e18:	e7c8      	b.n	8003dac <USBD_StdDevReq+0x78>
 8003e1a:	f8d0 32b4 	ldr.w	r3, [r0, #692]	; 0x2b4
 8003e1e:	689b      	ldr	r3, [r3, #8]
 8003e20:	e7c4      	b.n	8003dac <USBD_StdDevReq+0x78>
 8003e22:	f8d0 32b4 	ldr.w	r3, [r0, #692]	; 0x2b4
 8003e26:	68db      	ldr	r3, [r3, #12]
 8003e28:	e7c0      	b.n	8003dac <USBD_StdDevReq+0x78>
 8003e2a:	f8d0 32b4 	ldr.w	r3, [r0, #692]	; 0x2b4
 8003e2e:	691b      	ldr	r3, [r3, #16]
 8003e30:	e7bc      	b.n	8003dac <USBD_StdDevReq+0x78>
 8003e32:	f8d0 32b4 	ldr.w	r3, [r0, #692]	; 0x2b4
 8003e36:	695b      	ldr	r3, [r3, #20]
 8003e38:	e7b8      	b.n	8003dac <USBD_StdDevReq+0x78>
 8003e3a:	f8d0 32b4 	ldr.w	r3, [r0, #692]	; 0x2b4
 8003e3e:	699b      	ldr	r3, [r3, #24]
 8003e40:	e7b4      	b.n	8003dac <USBD_StdDevReq+0x78>
 8003e42:	7c03      	ldrb	r3, [r0, #16]
 8003e44:	2b00      	cmp	r3, #0
 8003e46:	d1b2      	bne.n	8003dae <USBD_StdDevReq+0x7a>
 8003e48:	f8d0 32b8 	ldr.w	r3, [r0, #696]	; 0x2b8
 8003e4c:	f10d 0006 	add.w	r0, sp, #6
 8003e50:	6b5b      	ldr	r3, [r3, #52]	; 0x34
 8003e52:	4798      	blx	r3
 8003e54:	e7b6      	b.n	8003dc4 <USBD_StdDevReq+0x90>
 8003e56:	7c03      	ldrb	r3, [r0, #16]
 8003e58:	2b00      	cmp	r3, #0
 8003e5a:	d1a8      	bne.n	8003dae <USBD_StdDevReq+0x7a>
 8003e5c:	f8d0 32b8 	ldr.w	r3, [r0, #696]	; 0x2b8
 8003e60:	f10d 0006 	add.w	r0, sp, #6
 8003e64:	6b1b      	ldr	r3, [r3, #48]	; 0x30
 8003e66:	4798      	blx	r3
 8003e68:	2307      	movs	r3, #7
 8003e6a:	e7c6      	b.n	8003dfa <USBD_StdDevReq+0xc6>
 8003e6c:	888b      	ldrh	r3, [r1, #4]
 8003e6e:	2b00      	cmp	r3, #0
 8003e70:	d19d      	bne.n	8003dae <USBD_StdDevReq+0x7a>
 8003e72:	88cb      	ldrh	r3, [r1, #6]
 8003e74:	2b00      	cmp	r3, #0
 8003e76:	d19a      	bne.n	8003dae <USBD_StdDevReq+0x7a>
 8003e78:	884e      	ldrh	r6, [r1, #2]
 8003e7a:	2e7f      	cmp	r6, #127	; 0x7f
 8003e7c:	d897      	bhi.n	8003dae <USBD_StdDevReq+0x7a>
 8003e7e:	f890 329c 	ldrb.w	r3, [r0, #668]	; 0x29c
 8003e82:	2b03      	cmp	r3, #3
 8003e84:	d093      	beq.n	8003dae <USBD_StdDevReq+0x7a>
 8003e86:	b2f1      	uxtb	r1, r6
 8003e88:	f880 129e 	strb.w	r1, [r0, #670]	; 0x29e
 8003e8c:	f000 fbe8 	bl	8004660 <USBD_LL_SetUSBAddress>
 8003e90:	4620      	mov	r0, r4
 8003e92:	f000 f9b7 	bl	8004204 <USBD_CtlSendStatus>
 8003e96:	b11e      	cbz	r6, 8003ea0 <USBD_StdDevReq+0x16c>
 8003e98:	2302      	movs	r3, #2
 8003e9a:	f884 329c 	strb.w	r3, [r4, #668]	; 0x29c
 8003e9e:	e76d      	b.n	8003d7c <USBD_StdDevReq+0x48>
 8003ea0:	2301      	movs	r3, #1
 8003ea2:	e7fa      	b.n	8003e9a <USBD_StdDevReq+0x166>
 8003ea4:	788e      	ldrb	r6, [r1, #2]
 8003ea6:	4f48      	ldr	r7, [pc, #288]	; (8003fc8 <USBD_StdDevReq+0x294>)
 8003ea8:	2e01      	cmp	r6, #1
 8003eaa:	703e      	strb	r6, [r7, #0]
 8003eac:	d903      	bls.n	8003eb6 <USBD_StdDevReq+0x182>
 8003eae:	f7ff ff36 	bl	8003d1e <USBD_CtlError.constprop.0>
 8003eb2:	2503      	movs	r5, #3
 8003eb4:	e762      	b.n	8003d7c <USBD_StdDevReq+0x48>
 8003eb6:	f890 329c 	ldrb.w	r3, [r0, #668]	; 0x29c
 8003eba:	2b02      	cmp	r3, #2
 8003ebc:	b2da      	uxtb	r2, r3
 8003ebe:	d008      	beq.n	8003ed2 <USBD_StdDevReq+0x19e>
 8003ec0:	2a03      	cmp	r2, #3
 8003ec2:	d015      	beq.n	8003ef0 <USBD_StdDevReq+0x1bc>
 8003ec4:	f7ff ff2b 	bl	8003d1e <USBD_CtlError.constprop.0>
 8003ec8:	4620      	mov	r0, r4
 8003eca:	7839      	ldrb	r1, [r7, #0]
 8003ecc:	f7ff fe18 	bl	8003b00 <USBD_ClrClassConfig>
 8003ed0:	e7ef      	b.n	8003eb2 <USBD_StdDevReq+0x17e>
 8003ed2:	2e00      	cmp	r6, #0
 8003ed4:	d068      	beq.n	8003fa8 <USBD_StdDevReq+0x274>
 8003ed6:	2101      	movs	r1, #1
 8003ed8:	6041      	str	r1, [r0, #4]
 8003eda:	f7ff fe0a 	bl	8003af2 <USBD_SetClassConfig>
 8003ede:	4605      	mov	r5, r0
 8003ee0:	4620      	mov	r0, r4
 8003ee2:	2d00      	cmp	r5, #0
 8003ee4:	f47f af64 	bne.w	8003db0 <USBD_StdDevReq+0x7c>
 8003ee8:	f000 f98c 	bl	8004204 <USBD_CtlSendStatus>
 8003eec:	2303      	movs	r3, #3
 8003eee:	e7d4      	b.n	8003e9a <USBD_StdDevReq+0x166>
 8003ef0:	b95e      	cbnz	r6, 8003f0a <USBD_StdDevReq+0x1d6>
 8003ef2:	2302      	movs	r3, #2
 8003ef4:	4631      	mov	r1, r6
 8003ef6:	f880 329c 	strb.w	r3, [r0, #668]	; 0x29c
 8003efa:	6046      	str	r6, [r0, #4]
 8003efc:	f7ff fe00 	bl	8003b00 <USBD_ClrClassConfig>
 8003f00:	4620      	mov	r0, r4
 8003f02:	f000 f97f 	bl	8004204 <USBD_CtlSendStatus>
 8003f06:	4635      	mov	r5, r6
 8003f08:	e738      	b.n	8003d7c <USBD_StdDevReq+0x48>
 8003f0a:	6841      	ldr	r1, [r0, #4]
 8003f0c:	2901      	cmp	r1, #1
 8003f0e:	d04b      	beq.n	8003fa8 <USBD_StdDevReq+0x274>
 8003f10:	b2c9      	uxtb	r1, r1
 8003f12:	f7ff fdf5 	bl	8003b00 <USBD_ClrClassConfig>
 8003f16:	7839      	ldrb	r1, [r7, #0]
 8003f18:	4620      	mov	r0, r4
 8003f1a:	6061      	str	r1, [r4, #4]
 8003f1c:	f7ff fde9 	bl	8003af2 <USBD_SetClassConfig>
 8003f20:	4606      	mov	r6, r0
 8003f22:	2800      	cmp	r0, #0
 8003f24:	d040      	beq.n	8003fa8 <USBD_StdDevReq+0x274>
 8003f26:	4620      	mov	r0, r4
 8003f28:	f7ff fef9 	bl	8003d1e <USBD_CtlError.constprop.0>
 8003f2c:	4620      	mov	r0, r4
 8003f2e:	7921      	ldrb	r1, [r4, #4]
 8003f30:	f7ff fde6 	bl	8003b00 <USBD_ClrClassConfig>
 8003f34:	2302      	movs	r3, #2
 8003f36:	f884 329c 	strb.w	r3, [r4, #668]	; 0x29c
 8003f3a:	e7e4      	b.n	8003f06 <USBD_StdDevReq+0x1d2>
 8003f3c:	88ca      	ldrh	r2, [r1, #6]
 8003f3e:	2a01      	cmp	r2, #1
 8003f40:	f47f af35 	bne.w	8003dae <USBD_StdDevReq+0x7a>
 8003f44:	f890 129c 	ldrb.w	r1, [r0, #668]	; 0x29c
 8003f48:	2902      	cmp	r1, #2
 8003f4a:	b2cb      	uxtb	r3, r1
 8003f4c:	d805      	bhi.n	8003f5a <USBD_StdDevReq+0x226>
 8003f4e:	b133      	cbz	r3, 8003f5e <USBD_StdDevReq+0x22a>
 8003f50:	4601      	mov	r1, r0
 8003f52:	2300      	movs	r3, #0
 8003f54:	f841 3f08 	str.w	r3, [r1, #8]!
 8003f58:	e742      	b.n	8003de0 <USBD_StdDevReq+0xac>
 8003f5a:	2b03      	cmp	r3, #3
 8003f5c:	d004      	beq.n	8003f68 <USBD_StdDevReq+0x234>
 8003f5e:	4620      	mov	r0, r4
 8003f60:	f7ff fedd 	bl	8003d1e <USBD_CtlError.constprop.0>
 8003f64:	2500      	movs	r5, #0
 8003f66:	e709      	b.n	8003d7c <USBD_StdDevReq+0x48>
 8003f68:	1d01      	adds	r1, r0, #4
 8003f6a:	e739      	b.n	8003de0 <USBD_StdDevReq+0xac>
 8003f6c:	f890 329c 	ldrb.w	r3, [r0, #668]	; 0x29c
 8003f70:	3b01      	subs	r3, #1
 8003f72:	2b02      	cmp	r3, #2
 8003f74:	d8f3      	bhi.n	8003f5e <USBD_StdDevReq+0x22a>
 8003f76:	88cb      	ldrh	r3, [r1, #6]
 8003f78:	2b02      	cmp	r3, #2
 8003f7a:	f47f af18 	bne.w	8003dae <USBD_StdDevReq+0x7a>
 8003f7e:	2301      	movs	r3, #1
 8003f80:	60c3      	str	r3, [r0, #12]
 8003f82:	f8d0 32a4 	ldr.w	r3, [r0, #676]	; 0x2a4
 8003f86:	b10b      	cbz	r3, 8003f8c <USBD_StdDevReq+0x258>
 8003f88:	2303      	movs	r3, #3
 8003f8a:	60c3      	str	r3, [r0, #12]
 8003f8c:	2202      	movs	r2, #2
 8003f8e:	4620      	mov	r0, r4
 8003f90:	f104 010c 	add.w	r1, r4, #12
 8003f94:	f000 f90c 	bl	80041b0 <USBD_CtlSendData>
 8003f98:	463d      	mov	r5, r7
 8003f9a:	e6ef      	b.n	8003d7c <USBD_StdDevReq+0x48>
 8003f9c:	884b      	ldrh	r3, [r1, #2]
 8003f9e:	2b01      	cmp	r3, #1
 8003fa0:	f47f aeec 	bne.w	8003d7c <USBD_StdDevReq+0x48>
 8003fa4:	f8c4 32a4 	str.w	r3, [r4, #676]	; 0x2a4
 8003fa8:	4620      	mov	r0, r4
 8003faa:	f000 f92b 	bl	8004204 <USBD_CtlSendStatus>
 8003fae:	e6e5      	b.n	8003d7c <USBD_StdDevReq+0x48>
 8003fb0:	f890 329c 	ldrb.w	r3, [r0, #668]	; 0x29c
 8003fb4:	3b01      	subs	r3, #1
 8003fb6:	2b02      	cmp	r3, #2
 8003fb8:	d8d1      	bhi.n	8003f5e <USBD_StdDevReq+0x22a>
 8003fba:	884b      	ldrh	r3, [r1, #2]
 8003fbc:	2b01      	cmp	r3, #1
 8003fbe:	f47f aedd 	bne.w	8003d7c <USBD_StdDevReq+0x48>
 8003fc2:	2300      	movs	r3, #0
 8003fc4:	e7ee      	b.n	8003fa4 <USBD_StdDevReq+0x270>
 8003fc6:	bf00      	nop
 8003fc8:	200001a0 	.word	0x200001a0

08003fcc <USBD_StdItfReq>:
 8003fcc:	b570      	push	{r4, r5, r6, lr}
 8003fce:	780b      	ldrb	r3, [r1, #0]
 8003fd0:	4604      	mov	r4, r0
 8003fd2:	f003 0260 	and.w	r2, r3, #96	; 0x60
 8003fd6:	2a40      	cmp	r2, #64	; 0x40
 8003fd8:	460e      	mov	r6, r1
 8003fda:	d001      	beq.n	8003fe0 <USBD_StdItfReq+0x14>
 8003fdc:	065b      	lsls	r3, r3, #25
 8003fde:	d416      	bmi.n	800400e <USBD_StdItfReq+0x42>
 8003fe0:	f894 329c 	ldrb.w	r3, [r4, #668]	; 0x29c
 8003fe4:	3b01      	subs	r3, #1
 8003fe6:	2b02      	cmp	r3, #2
 8003fe8:	d811      	bhi.n	800400e <USBD_StdItfReq+0x42>
 8003fea:	7933      	ldrb	r3, [r6, #4]
 8003fec:	2b01      	cmp	r3, #1
 8003fee:	d80e      	bhi.n	800400e <USBD_StdItfReq+0x42>
 8003ff0:	f8d4 32b8 	ldr.w	r3, [r4, #696]	; 0x2b8
 8003ff4:	4631      	mov	r1, r6
 8003ff6:	689b      	ldr	r3, [r3, #8]
 8003ff8:	4620      	mov	r0, r4
 8003ffa:	4798      	blx	r3
 8003ffc:	88f3      	ldrh	r3, [r6, #6]
 8003ffe:	4605      	mov	r5, r0
 8004000:	b91b      	cbnz	r3, 800400a <USBD_StdItfReq+0x3e>
 8004002:	b910      	cbnz	r0, 800400a <USBD_StdItfReq+0x3e>
 8004004:	4620      	mov	r0, r4
 8004006:	f000 f8fd 	bl	8004204 <USBD_CtlSendStatus>
 800400a:	4628      	mov	r0, r5
 800400c:	bd70      	pop	{r4, r5, r6, pc}
 800400e:	4620      	mov	r0, r4
 8004010:	f7ff fe85 	bl	8003d1e <USBD_CtlError.constprop.0>
 8004014:	2500      	movs	r5, #0
 8004016:	e7f8      	b.n	800400a <USBD_StdItfReq+0x3e>

08004018 <USBD_StdEPReq>:
 8004018:	b570      	push	{r4, r5, r6, lr}
 800401a:	780b      	ldrb	r3, [r1, #0]
 800401c:	4604      	mov	r4, r0
 800401e:	f003 0360 	and.w	r3, r3, #96	; 0x60
 8004022:	2b20      	cmp	r3, #32
 8004024:	460d      	mov	r5, r1
 8004026:	d052      	beq.n	80040ce <USBD_StdEPReq+0xb6>
 8004028:	2b40      	cmp	r3, #64	; 0x40
 800402a:	d050      	beq.n	80040ce <USBD_StdEPReq+0xb6>
 800402c:	bb6b      	cbnz	r3, 800408a <USBD_StdEPReq+0x72>
 800402e:	786b      	ldrb	r3, [r5, #1]
 8004030:	888a      	ldrh	r2, [r1, #4]
 8004032:	2b01      	cmp	r3, #1
 8004034:	7909      	ldrb	r1, [r1, #4]
 8004036:	d039      	beq.n	80040ac <USBD_StdEPReq+0x94>
 8004038:	2b03      	cmp	r3, #3
 800403a:	d01f      	beq.n	800407c <USBD_StdEPReq+0x64>
 800403c:	bb2b      	cbnz	r3, 800408a <USBD_StdEPReq+0x72>
 800403e:	f890 329c 	ldrb.w	r3, [r0, #668]	; 0x29c
 8004042:	2b02      	cmp	r3, #2
 8004044:	b2d8      	uxtb	r0, r3
 8004046:	d053      	beq.n	80040f0 <USBD_StdEPReq+0xd8>
 8004048:	2803      	cmp	r0, #3
 800404a:	d11e      	bne.n	800408a <USBD_StdEPReq+0x72>
 800404c:	f012 0f80 	tst.w	r2, #128	; 0x80
 8004050:	f04f 0214 	mov.w	r2, #20
 8004054:	f001 030f 	and.w	r3, r1, #15
 8004058:	fb02 4303 	mla	r3, r2, r3, r4
 800405c:	d059      	beq.n	8004112 <USBD_StdEPReq+0xfa>
 800405e:	8c9b      	ldrh	r3, [r3, #36]	; 0x24
 8004060:	b19b      	cbz	r3, 800408a <USBD_StdEPReq+0x72>
 8004062:	2314      	movs	r3, #20
 8004064:	f001 057f 	and.w	r5, r1, #127	; 0x7f
 8004068:	fb05 3303 	mla	r3, r5, r3, r3
 800406c:	18e5      	adds	r5, r4, r3
 800406e:	f011 037f 	ands.w	r3, r1, #127	; 0x7f
 8004072:	d15a      	bne.n	800412a <USBD_StdEPReq+0x112>
 8004074:	602b      	str	r3, [r5, #0]
 8004076:	2202      	movs	r2, #2
 8004078:	4629      	mov	r1, r5
 800407a:	e046      	b.n	800410a <USBD_StdEPReq+0xf2>
 800407c:	f890 329c 	ldrb.w	r3, [r0, #668]	; 0x29c
 8004080:	2b02      	cmp	r3, #2
 8004082:	b2da      	uxtb	r2, r3
 8004084:	d02b      	beq.n	80040de <USBD_StdEPReq+0xc6>
 8004086:	2a03      	cmp	r2, #3
 8004088:	d003      	beq.n	8004092 <USBD_StdEPReq+0x7a>
 800408a:	4620      	mov	r0, r4
 800408c:	f7ff fe47 	bl	8003d1e <USBD_CtlError.constprop.0>
 8004090:	e00a      	b.n	80040a8 <USBD_StdEPReq+0x90>
 8004092:	886b      	ldrh	r3, [r5, #2]
 8004094:	b92b      	cbnz	r3, 80040a2 <USBD_StdEPReq+0x8a>
 8004096:	064a      	lsls	r2, r1, #25
 8004098:	d003      	beq.n	80040a2 <USBD_StdEPReq+0x8a>
 800409a:	88eb      	ldrh	r3, [r5, #6]
 800409c:	b90b      	cbnz	r3, 80040a2 <USBD_StdEPReq+0x8a>
 800409e:	f000 fab1 	bl	8004604 <USBD_LL_StallEP>
 80040a2:	4620      	mov	r0, r4
 80040a4:	f000 f8ae 	bl	8004204 <USBD_CtlSendStatus>
 80040a8:	2000      	movs	r0, #0
 80040aa:	bd70      	pop	{r4, r5, r6, pc}
 80040ac:	f890 329c 	ldrb.w	r3, [r0, #668]	; 0x29c
 80040b0:	2b02      	cmp	r3, #2
 80040b2:	b2da      	uxtb	r2, r3
 80040b4:	d013      	beq.n	80040de <USBD_StdEPReq+0xc6>
 80040b6:	2a03      	cmp	r2, #3
 80040b8:	d1e7      	bne.n	800408a <USBD_StdEPReq+0x72>
 80040ba:	886b      	ldrh	r3, [r5, #2]
 80040bc:	2b00      	cmp	r3, #0
 80040be:	d1f3      	bne.n	80040a8 <USBD_StdEPReq+0x90>
 80040c0:	064e      	lsls	r6, r1, #25
 80040c2:	d001      	beq.n	80040c8 <USBD_StdEPReq+0xb0>
 80040c4:	f000 faac 	bl	8004620 <USBD_LL_ClearStallEP>
 80040c8:	4620      	mov	r0, r4
 80040ca:	f000 f89b 	bl	8004204 <USBD_CtlSendStatus>
 80040ce:	f8d4 32b8 	ldr.w	r3, [r4, #696]	; 0x2b8
 80040d2:	4629      	mov	r1, r5
 80040d4:	4620      	mov	r0, r4
 80040d6:	e8bd 4070 	ldmia.w	sp!, {r4, r5, r6, lr}
 80040da:	689b      	ldr	r3, [r3, #8]
 80040dc:	4718      	bx	r3
 80040de:	064b      	lsls	r3, r1, #25
 80040e0:	d0d3      	beq.n	800408a <USBD_StdEPReq+0x72>
 80040e2:	f000 fa8f 	bl	8004604 <USBD_LL_StallEP>
 80040e6:	2180      	movs	r1, #128	; 0x80
 80040e8:	4620      	mov	r0, r4
 80040ea:	f000 fa8b 	bl	8004604 <USBD_LL_StallEP>
 80040ee:	e7db      	b.n	80040a8 <USBD_StdEPReq+0x90>
 80040f0:	0649      	lsls	r1, r1, #25
 80040f2:	d1ca      	bne.n	800408a <USBD_StdEPReq+0x72>
 80040f4:	0613      	lsls	r3, r2, #24
 80040f6:	f04f 0300 	mov.w	r3, #0
 80040fa:	f04f 0202 	mov.w	r2, #2
 80040fe:	bf4c      	ite	mi
 8004100:	f104 0114 	addmi.w	r1, r4, #20
 8004104:	f504 71aa 	addpl.w	r1, r4, #340	; 0x154
 8004108:	600b      	str	r3, [r1, #0]
 800410a:	4620      	mov	r0, r4
 800410c:	f000 f850 	bl	80041b0 <USBD_CtlSendData>
 8004110:	e7ca      	b.n	80040a8 <USBD_StdEPReq+0x90>
 8004112:	f8b3 3164 	ldrh.w	r3, [r3, #356]	; 0x164
 8004116:	2b00      	cmp	r3, #0
 8004118:	d0b7      	beq.n	800408a <USBD_StdEPReq+0x72>
 800411a:	2314      	movs	r3, #20
 800411c:	f001 057f 	and.w	r5, r1, #127	; 0x7f
 8004120:	fb03 4505 	mla	r5, r3, r5, r4
 8004124:	f505 75aa 	add.w	r5, r5, #340	; 0x154
 8004128:	e7a1      	b.n	800406e <USBD_StdEPReq+0x56>
 800412a:	4620      	mov	r0, r4
 800412c:	f000 fa86 	bl	800463c <USBD_LL_IsStallEP>
 8004130:	b108      	cbz	r0, 8004136 <USBD_StdEPReq+0x11e>
 8004132:	2301      	movs	r3, #1
 8004134:	e79e      	b.n	8004074 <USBD_StdEPReq+0x5c>
 8004136:	6028      	str	r0, [r5, #0]
 8004138:	e79d      	b.n	8004076 <USBD_StdEPReq+0x5e>

0800413a <USBD_ParseSetupRequest>:
 800413a:	780b      	ldrb	r3, [r1, #0]
 800413c:	7003      	strb	r3, [r0, #0]
 800413e:	784b      	ldrb	r3, [r1, #1]
 8004140:	7043      	strb	r3, [r0, #1]
 8004142:	78ca      	ldrb	r2, [r1, #3]
 8004144:	788b      	ldrb	r3, [r1, #2]
 8004146:	ea43 2302 	orr.w	r3, r3, r2, lsl #8
 800414a:	8043      	strh	r3, [r0, #2]
 800414c:	794a      	ldrb	r2, [r1, #5]
 800414e:	790b      	ldrb	r3, [r1, #4]
 8004150:	ea43 2302 	orr.w	r3, r3, r2, lsl #8
 8004154:	8083      	strh	r3, [r0, #4]
 8004156:	79ca      	ldrb	r2, [r1, #7]
 8004158:	798b      	ldrb	r3, [r1, #6]
 800415a:	ea43 2302 	orr.w	r3, r3, r2, lsl #8
 800415e:	80c3      	strh	r3, [r0, #6]
 8004160:	4770      	bx	lr

08004162 <USBD_CtlError>:
 8004162:	b510      	push	{r4, lr}
 8004164:	4604      	mov	r4, r0
 8004166:	2180      	movs	r1, #128	; 0x80
 8004168:	f000 fa4c 	bl	8004604 <USBD_LL_StallEP>
 800416c:	4620      	mov	r0, r4
 800416e:	e8bd 4010 	ldmia.w	sp!, {r4, lr}
 8004172:	2100      	movs	r1, #0
 8004174:	f000 ba46 	b.w	8004604 <USBD_LL_StallEP>

08004178 <USBD_GetString>:
 8004178:	b530      	push	{r4, r5, lr}
 800417a:	b188      	cbz	r0, 80041a0 <USBD_GetString+0x28>
 800417c:	2500      	movs	r5, #0
 800417e:	3801      	subs	r0, #1
 8004180:	462b      	mov	r3, r5
 8004182:	3501      	adds	r5, #1
 8004184:	5d44      	ldrb	r4, [r0, r5]
 8004186:	2c00      	cmp	r4, #0
 8004188:	d1fa      	bne.n	8004180 <USBD_GetString+0x8>
 800418a:	b2db      	uxtb	r3, r3
 800418c:	3301      	adds	r3, #1
 800418e:	005b      	lsls	r3, r3, #1
 8004190:	8013      	strh	r3, [r2, #0]
 8004192:	700b      	strb	r3, [r1, #0]
 8004194:	2303      	movs	r3, #3
 8004196:	704b      	strb	r3, [r1, #1]
 8004198:	2302      	movs	r3, #2
 800419a:	f810 2f01 	ldrb.w	r2, [r0, #1]!
 800419e:	b902      	cbnz	r2, 80041a2 <USBD_GetString+0x2a>
 80041a0:	bd30      	pop	{r4, r5, pc}
 80041a2:	54ca      	strb	r2, [r1, r3]
 80041a4:	1c5a      	adds	r2, r3, #1
 80041a6:	b2d2      	uxtb	r2, r2
 80041a8:	3302      	adds	r3, #2
 80041aa:	548c      	strb	r4, [r1, r2]
 80041ac:	b2db      	uxtb	r3, r3
 80041ae:	e7f4      	b.n	800419a <USBD_GetString+0x22>

080041b0 <USBD_CtlSendData>:
 80041b0:	b510      	push	{r4, lr}
 80041b2:	2402      	movs	r4, #2
 80041b4:	4613      	mov	r3, r2
 80041b6:	e9c0 2206 	strd	r2, r2, [r0, #24]
 80041ba:	f8c0 4294 	str.w	r4, [r0, #660]	; 0x294
 80041be:	460a      	mov	r2, r1
 80041c0:	2100      	movs	r1, #0
 80041c2:	f000 fa5b 	bl	800467c <USBD_LL_Transmit>
 80041c6:	2000      	movs	r0, #0
 80041c8:	bd10      	pop	{r4, pc}

080041ca <USBD_CtlContinueSendData>:
 80041ca:	b508      	push	{r3, lr}
 80041cc:	4613      	mov	r3, r2
 80041ce:	460a      	mov	r2, r1
 80041d0:	2100      	movs	r1, #0
 80041d2:	f000 fa53 	bl	800467c <USBD_LL_Transmit>
 80041d6:	2000      	movs	r0, #0
 80041d8:	bd08      	pop	{r3, pc}

080041da <USBD_CtlPrepareRx>:
 80041da:	b510      	push	{r4, lr}
 80041dc:	2403      	movs	r4, #3
 80041de:	4613      	mov	r3, r2
 80041e0:	e9c0 2256 	strd	r2, r2, [r0, #344]	; 0x158
 80041e4:	f8c0 4294 	str.w	r4, [r0, #660]	; 0x294
 80041e8:	460a      	mov	r2, r1
 80041ea:	2100      	movs	r1, #0
 80041ec:	f000 fa54 	bl	8004698 <USBD_LL_PrepareReceive>
 80041f0:	2000      	movs	r0, #0
 80041f2:	bd10      	pop	{r4, pc}

080041f4 <USBD_CtlContinueRx>:
 80041f4:	b508      	push	{r3, lr}
 80041f6:	4613      	mov	r3, r2
 80041f8:	460a      	mov	r2, r1
 80041fa:	2100      	movs	r1, #0
 80041fc:	f000 fa4c 	bl	8004698 <USBD_LL_PrepareReceive>
 8004200:	2000      	movs	r0, #0
 8004202:	bd08      	pop	{r3, pc}

08004204 <USBD_CtlSendStatus>:
 8004204:	b508      	push	{r3, lr}
 8004206:	2204      	movs	r2, #4
 8004208:	2300      	movs	r3, #0
 800420a:	f8c0 2294 	str.w	r2, [r0, #660]	; 0x294
 800420e:	4619      	mov	r1, r3
 8004210:	461a      	mov	r2, r3
 8004212:	f000 fa33 	bl	800467c <USBD_LL_Transmit>
 8004216:	2000      	movs	r0, #0
 8004218:	bd08      	pop	{r3, pc}

0800421a <USBD_CtlReceiveStatus>:
 800421a:	b508      	push	{r3, lr}
 800421c:	2205      	movs	r2, #5
 800421e:	2300      	movs	r3, #0
 8004220:	f8c0 2294 	str.w	r2, [r0, #660]	; 0x294
 8004224:	4619      	mov	r1, r3
 8004226:	461a      	mov	r2, r3
 8004228:	f000 fa36 	bl	8004698 <USBD_LL_PrepareReceive>
 800422c:	2000      	movs	r0, #0
 800422e:	bd08      	pop	{r3, pc}

08004230 <MX_USB_Device_Init>:
 8004230:	b508      	push	{r3, lr}
 8004232:	2200      	movs	r2, #0
 8004234:	490e      	ldr	r1, [pc, #56]	; (8004270 <MX_USB_Device_Init+0x40>)
 8004236:	480f      	ldr	r0, [pc, #60]	; (8004274 <MX_USB_Device_Init+0x44>)
 8004238:	f7ff fc30 	bl	8003a9c <USBD_Init>
 800423c:	b108      	cbz	r0, 8004242 <MX_USB_Device_Init+0x12>
 800423e:	f7fc f8df 	bl	8000400 <Error_Handler>
 8004242:	490d      	ldr	r1, [pc, #52]	; (8004278 <MX_USB_Device_Init+0x48>)
 8004244:	480b      	ldr	r0, [pc, #44]	; (8004274 <MX_USB_Device_Init+0x44>)
 8004246:	f7ff fc3c 	bl	8003ac2 <USBD_RegisterClass>
 800424a:	b108      	cbz	r0, 8004250 <MX_USB_Device_Init+0x20>
 800424c:	f7fc f8d8 	bl	8000400 <Error_Handler>
 8004250:	490a      	ldr	r1, [pc, #40]	; (800427c <MX_USB_Device_Init+0x4c>)
 8004252:	4808      	ldr	r0, [pc, #32]	; (8004274 <MX_USB_Device_Init+0x44>)
 8004254:	f7ff fbf0 	bl	8003a38 <USBD_CDC_RegisterInterface>
 8004258:	b108      	cbz	r0, 800425e <MX_USB_Device_Init+0x2e>
 800425a:	f7fc f8d1 	bl	8000400 <Error_Handler>
 800425e:	4805      	ldr	r0, [pc, #20]	; (8004274 <MX_USB_Device_Init+0x44>)
 8004260:	f7ff fc45 	bl	8003aee <USBD_Start>
 8004264:	b118      	cbz	r0, 800426e <MX_USB_Device_Init+0x3e>
 8004266:	e8bd 4008 	ldmia.w	sp!, {r3, lr}
 800426a:	f7fc b8c9 	b.w	8000400 <Error_Handler>
 800426e:	bd08      	pop	{r3, pc}
 8004270:	20000130 	.word	0x20000130
 8004274:	20000540 	.word	0x20000540
 8004278:	2000000c 	.word	0x2000000c
 800427c:	2000011c 	.word	0x2000011c

08004280 <CDC_DeInit_FS>:
 8004280:	2000      	movs	r0, #0
 8004282:	4770      	bx	lr

08004284 <CDC_Control_FS>:
 8004284:	2000      	movs	r0, #0
 8004286:	4770      	bx	lr

08004288 <CDC_TransmitCplt_FS>:
 8004288:	2000      	movs	r0, #0
 800428a:	4770      	bx	lr

0800428c <CDC_Receive_FS>:
 800428c:	b510      	push	{r4, lr}
 800428e:	4c05      	ldr	r4, [pc, #20]	; (80042a4 <CDC_Receive_FS+0x18>)
 8004290:	4601      	mov	r1, r0
 8004292:	4620      	mov	r0, r4
 8004294:	f7ff fbe2 	bl	8003a5c <USBD_CDC_SetRxBuffer>
 8004298:	4620      	mov	r0, r4
 800429a:	f7ff fbe8 	bl	8003a6e <USBD_CDC_ReceivePacket>
 800429e:	2000      	movs	r0, #0
 80042a0:	bd10      	pop	{r4, pc}
 80042a2:	bf00      	nop
 80042a4:	20000540 	.word	0x20000540

080042a8 <CDC_Init_FS>:
 80042a8:	b510      	push	{r4, lr}
 80042aa:	4c06      	ldr	r4, [pc, #24]	; (80042c4 <CDC_Init_FS+0x1c>)
 80042ac:	2200      	movs	r2, #0
 80042ae:	4620      	mov	r0, r4
 80042b0:	4905      	ldr	r1, [pc, #20]	; (80042c8 <CDC_Init_FS+0x20>)
 80042b2:	f7ff fbc8 	bl	8003a46 <USBD_CDC_SetTxBuffer>
 80042b6:	4620      	mov	r0, r4
 80042b8:	4904      	ldr	r1, [pc, #16]	; (80042cc <CDC_Init_FS+0x24>)
 80042ba:	f7ff fbcf 	bl	8003a5c <USBD_CDC_SetRxBuffer>
 80042be:	2000      	movs	r0, #0
 80042c0:	bd10      	pop	{r4, pc}
 80042c2:	bf00      	nop
 80042c4:	20000540 	.word	0x20000540
 80042c8:	20001010 	.word	0x20001010
 80042cc:	20000810 	.word	0x20000810

080042d0 <USBD_CDC_DeviceDescriptor>:
 80042d0:	2312      	movs	r3, #18
 80042d2:	4801      	ldr	r0, [pc, #4]	; (80042d8 <USBD_CDC_DeviceDescriptor+0x8>)
 80042d4:	800b      	strh	r3, [r1, #0]
 80042d6:	4770      	bx	lr
 80042d8:	20000150 	.word	0x20000150

080042dc <USBD_CDC_LangIDStrDescriptor>:
 80042dc:	2304      	movs	r3, #4
 80042de:	4801      	ldr	r0, [pc, #4]	; (80042e4 <USBD_CDC_LangIDStrDescriptor+0x8>)
 80042e0:	800b      	strh	r3, [r1, #0]
 80042e2:	4770      	bx	lr
 80042e4:	20000164 	.word	0x20000164

080042e8 <IntToUnicode>:
 80042e8:	2300      	movs	r3, #0
 80042ea:	b570      	push	{r4, r5, r6, lr}
 80042ec:	461e      	mov	r6, r3
 80042ee:	1c4d      	adds	r5, r1, #1
 80042f0:	0f04      	lsrs	r4, r0, #28
 80042f2:	f1b0 4f20 	cmp.w	r0, #2684354560	; 0xa0000000
 80042f6:	bf34      	ite	cc
 80042f8:	3430      	addcc	r4, #48	; 0x30
 80042fa:	3437      	addcs	r4, #55	; 0x37
 80042fc:	f801 4013 	strb.w	r4, [r1, r3, lsl #1]
 8004300:	f805 6013 	strb.w	r6, [r5, r3, lsl #1]
 8004304:	3301      	adds	r3, #1
 8004306:	b2dc      	uxtb	r4, r3
 8004308:	42a2      	cmp	r2, r4
 800430a:	ea4f 1000 	mov.w	r0, r0, lsl #4
 800430e:	d8ef      	bhi.n	80042f0 <IntToUnicode+0x8>
 8004310:	bd70      	pop	{r4, r5, r6, pc}
	...

08004314 <USBD_CDC_SerialStrDescriptor>:
 8004314:	231a      	movs	r3, #26
 8004316:	b510      	push	{r4, lr}
 8004318:	800b      	strh	r3, [r1, #0]
 800431a:	4b09      	ldr	r3, [pc, #36]	; (8004340 <USBD_CDC_SerialStrDescriptor+0x2c>)
 800431c:	6818      	ldr	r0, [r3, #0]
 800431e:	3308      	adds	r3, #8
 8004320:	681b      	ldr	r3, [r3, #0]
 8004322:	18c0      	adds	r0, r0, r3
 8004324:	d00a      	beq.n	800433c <USBD_CDC_SerialStrDescriptor+0x28>
 8004326:	4b07      	ldr	r3, [pc, #28]	; (8004344 <USBD_CDC_SerialStrDescriptor+0x30>)
 8004328:	2208      	movs	r2, #8
 800432a:	681c      	ldr	r4, [r3, #0]
 800432c:	4906      	ldr	r1, [pc, #24]	; (8004348 <USBD_CDC_SerialStrDescriptor+0x34>)
 800432e:	f7ff ffdb 	bl	80042e8 <IntToUnicode>
 8004332:	2204      	movs	r2, #4
 8004334:	4620      	mov	r0, r4
 8004336:	4905      	ldr	r1, [pc, #20]	; (800434c <USBD_CDC_SerialStrDescriptor+0x38>)
 8004338:	f7ff ffd6 	bl	80042e8 <IntToUnicode>
 800433c:	4804      	ldr	r0, [pc, #16]	; (8004350 <USBD_CDC_SerialStrDescriptor+0x3c>)
 800433e:	bd10      	pop	{r4, pc}
 8004340:	0bfa0590 	.word	0x0bfa0590
 8004344:	0bfa0594 	.word	0x0bfa0594
 8004348:	2000016a 	.word	0x2000016a
 800434c:	2000017a 	.word	0x2000017a
 8004350:	20000168 	.word	0x20000168

08004354 <USBD_CDC_ManufacturerStrDescriptor>:
 8004354:	b510      	push	{r4, lr}
 8004356:	4c04      	ldr	r4, [pc, #16]	; (8004368 <USBD_CDC_ManufacturerStrDescriptor+0x14>)
 8004358:	460a      	mov	r2, r1
 800435a:	4804      	ldr	r0, [pc, #16]	; (800436c <USBD_CDC_ManufacturerStrDescriptor+0x18>)
 800435c:	4621      	mov	r1, r4
 800435e:	f7ff ff0b 	bl	8004178 <USBD_GetString>
 8004362:	4620      	mov	r0, r4
 8004364:	bd10      	pop	{r4, pc}
 8004366:	bf00      	nop
 8004368:	20001810 	.word	0x20001810
 800436c:	080047d0 	.word	0x080047d0

08004370 <USBD_CDC_ProductStrDescriptor>:
 8004370:	b510      	push	{r4, lr}
 8004372:	4c04      	ldr	r4, [pc, #16]	; (8004384 <USBD_CDC_ProductStrDescriptor+0x14>)
 8004374:	460a      	mov	r2, r1
 8004376:	4804      	ldr	r0, [pc, #16]	; (8004388 <USBD_CDC_ProductStrDescriptor+0x18>)
 8004378:	4621      	mov	r1, r4
 800437a:	f7ff fefd 	bl	8004178 <USBD_GetString>
 800437e:	4620      	mov	r0, r4
 8004380:	bd10      	pop	{r4, pc}
 8004382:	bf00      	nop
 8004384:	20001810 	.word	0x20001810
 8004388:	080047e3 	.word	0x080047e3

0800438c <USBD_CDC_ConfigStrDescriptor>:
 800438c:	b510      	push	{r4, lr}
 800438e:	4c04      	ldr	r4, [pc, #16]	; (80043a0 <USBD_CDC_ConfigStrDescriptor+0x14>)
 8004390:	460a      	mov	r2, r1
 8004392:	4804      	ldr	r0, [pc, #16]	; (80043a4 <USBD_CDC_ConfigStrDescriptor+0x18>)
 8004394:	4621      	mov	r1, r4
 8004396:	f7ff feef 	bl	8004178 <USBD_GetString>
 800439a:	4620      	mov	r0, r4
 800439c:	bd10      	pop	{r4, pc}
 800439e:	bf00      	nop
 80043a0:	20001810 	.word	0x20001810
 80043a4:	080047f9 	.word	0x080047f9

080043a8 <USBD_CDC_InterfaceStrDescriptor>:
 80043a8:	b510      	push	{r4, lr}
 80043aa:	4c04      	ldr	r4, [pc, #16]	; (80043bc <USBD_CDC_InterfaceStrDescriptor+0x14>)
 80043ac:	460a      	mov	r2, r1
 80043ae:	4804      	ldr	r0, [pc, #16]	; (80043c0 <USBD_CDC_InterfaceStrDescriptor+0x18>)
 80043b0:	4621      	mov	r1, r4
 80043b2:	f7ff fee1 	bl	8004178 <USBD_GetString>
 80043b6:	4620      	mov	r0, r4
 80043b8:	bd10      	pop	{r4, pc}
 80043ba:	bf00      	nop
 80043bc:	20001810 	.word	0x20001810
 80043c0:	08004804 	.word	0x08004804

080043c4 <HAL_PCD_MspInit>:
 80043c4:	b530      	push	{r4, r5, lr}
 80043c6:	4604      	mov	r4, r0
 80043c8:	b0ad      	sub	sp, #180	; 0xb4
 80043ca:	2214      	movs	r2, #20
 80043cc:	2100      	movs	r1, #0
 80043ce:	a802      	add	r0, sp, #8
 80043d0:	f000 f9c2 	bl	8004758 <memset>
 80043d4:	2294      	movs	r2, #148	; 0x94
 80043d6:	2100      	movs	r1, #0
 80043d8:	a807      	add	r0, sp, #28
 80043da:	f000 f9bd 	bl	8004758 <memset>
 80043de:	6822      	ldr	r2, [r4, #0]
 80043e0:	4b23      	ldr	r3, [pc, #140]	; (8004470 <HAL_PCD_MspInit+0xac>)
 80043e2:	429a      	cmp	r2, r3
 80043e4:	d141      	bne.n	800446a <HAL_PCD_MspInit+0xa6>
 80043e6:	f44f 5300 	mov.w	r3, #8192	; 0x2000
 80043ea:	9307      	str	r3, [sp, #28]
 80043ec:	f04f 6380 	mov.w	r3, #67108864	; 0x4000000
 80043f0:	9324      	str	r3, [sp, #144]	; 0x90
 80043f2:	2301      	movs	r3, #1
 80043f4:	2418      	movs	r4, #24
 80043f6:	e9cd 3308 	strd	r3, r3, [sp, #32]
 80043fa:	2307      	movs	r3, #7
 80043fc:	e9cd 430a 	strd	r4, r3, [sp, #40]	; 0x28
 8004400:	2302      	movs	r3, #2
 8004402:	e9cd 330c 	strd	r3, r3, [sp, #48]	; 0x30
 8004406:	f44f 1380 	mov.w	r3, #1048576	; 0x100000
 800440a:	a807      	add	r0, sp, #28
 800440c:	930e      	str	r3, [sp, #56]	; 0x38
 800440e:	f7fe f83d 	bl	800248c <HAL_RCCEx_PeriphCLKConfig>
 8004412:	b108      	cbz	r0, 8004418 <HAL_PCD_MspInit+0x54>
 8004414:	f7fb fff4 	bl	8000400 <Error_Handler>
 8004418:	4c16      	ldr	r4, [pc, #88]	; (8004474 <HAL_PCD_MspInit+0xb0>)
 800441a:	f44f 52c0 	mov.w	r2, #6144	; 0x1800
 800441e:	6ce3      	ldr	r3, [r4, #76]	; 0x4c
 8004420:	2500      	movs	r5, #0
 8004422:	f043 0301 	orr.w	r3, r3, #1
 8004426:	64e3      	str	r3, [r4, #76]	; 0x4c
 8004428:	6ce3      	ldr	r3, [r4, #76]	; 0x4c
 800442a:	4813      	ldr	r0, [pc, #76]	; (8004478 <HAL_PCD_MspInit+0xb4>)
 800442c:	f003 0301 	and.w	r3, r3, #1
 8004430:	9300      	str	r3, [sp, #0]
 8004432:	9b00      	ldr	r3, [sp, #0]
 8004434:	2302      	movs	r3, #2
 8004436:	e9cd 2302 	strd	r2, r3, [sp, #8]
 800443a:	230a      	movs	r3, #10
 800443c:	a902      	add	r1, sp, #8
 800443e:	9306      	str	r3, [sp, #24]
 8004440:	e9cd 5504 	strd	r5, r5, [sp, #16]
 8004444:	f7fc fa24 	bl	8000890 <HAL_GPIO_Init>
 8004448:	6de3      	ldr	r3, [r4, #92]	; 0x5c
 800444a:	2049      	movs	r0, #73	; 0x49
 800444c:	f443 1300 	orr.w	r3, r3, #2097152	; 0x200000
 8004450:	65e3      	str	r3, [r4, #92]	; 0x5c
 8004452:	6de3      	ldr	r3, [r4, #92]	; 0x5c
 8004454:	462a      	mov	r2, r5
 8004456:	f403 1300 	and.w	r3, r3, #2097152	; 0x200000
 800445a:	9301      	str	r3, [sp, #4]
 800445c:	4629      	mov	r1, r5
 800445e:	9b01      	ldr	r3, [sp, #4]
 8004460:	f7fc f9c2 	bl	80007e8 <HAL_NVIC_SetPriority>
 8004464:	2049      	movs	r0, #73	; 0x49
 8004466:	f7fc f9ef 	bl	8000848 <HAL_NVIC_EnableIRQ>
 800446a:	b02d      	add	sp, #180	; 0xb4
 800446c:	bd30      	pop	{r4, r5, pc}
 800446e:	bf00      	nop
 8004470:	4000d400 	.word	0x4000d400
 8004474:	40021000 	.word	0x40021000
 8004478:	42020000 	.word	0x42020000

0800447c <HAL_PCD_SetupStageCallback>:
 800447c:	f500 712c 	add.w	r1, r0, #688	; 0x2b0
 8004480:	f8d0 02f0 	ldr.w	r0, [r0, #752]	; 0x2f0
 8004484:	f7ff bb44 	b.w	8003b10 <USBD_LL_SetupStage>

08004488 <HAL_PCD_DataOutStageCallback>:
 8004488:	2328      	movs	r3, #40	; 0x28
 800448a:	fb03 0301 	mla	r3, r3, r1, r0
 800448e:	f8d0 02f0 	ldr.w	r0, [r0, #752]	; 0x2f0
 8004492:	f8d3 217c 	ldr.w	r2, [r3, #380]	; 0x17c
 8004496:	f7ff bb6b 	b.w	8003b70 <USBD_LL_DataOutStage>

0800449a <HAL_PCD_DataInStageCallback>:
 800449a:	2328      	movs	r3, #40	; 0x28
 800449c:	fb03 0301 	mla	r3, r3, r1, r0
 80044a0:	f8d0 02f0 	ldr.w	r0, [r0, #752]	; 0x2f0
 80044a4:	6bda      	ldr	r2, [r3, #60]	; 0x3c
 80044a6:	f7ff bb93 	b.w	8003bd0 <USBD_LL_DataInStage>

080044aa <HAL_PCD_SOFCallback>:
 80044aa:	f8d0 02f0 	ldr.w	r0, [r0, #752]	; 0x2f0
 80044ae:	f7ff bc25 	b.w	8003cfc <USBD_LL_SOF>

080044b2 <HAL_PCD_ResetCallback>:
 80044b2:	6883      	ldr	r3, [r0, #8]
 80044b4:	b510      	push	{r4, lr}
 80044b6:	2b02      	cmp	r3, #2
 80044b8:	4604      	mov	r4, r0
 80044ba:	d001      	beq.n	80044c0 <HAL_PCD_ResetCallback+0xe>
 80044bc:	f7fb ffa0 	bl	8000400 <Error_Handler>
 80044c0:	f8d4 02f0 	ldr.w	r0, [r4, #752]	; 0x2f0
 80044c4:	2101      	movs	r1, #1
 80044c6:	f7ff fc01 	bl	8003ccc <USBD_LL_SetSpeed>
 80044ca:	f8d4 02f0 	ldr.w	r0, [r4, #752]	; 0x2f0
 80044ce:	e8bd 4010 	ldmia.w	sp!, {r4, lr}
 80044d2:	f7ff bbcf 	b.w	8003c74 <USBD_LL_Reset>
	...

080044d8 <HAL_PCD_SuspendCallback>:
 80044d8:	b510      	push	{r4, lr}
 80044da:	4604      	mov	r4, r0
 80044dc:	f8d0 02f0 	ldr.w	r0, [r0, #752]	; 0x2f0
 80044e0:	f7ff fbf7 	bl	8003cd2 <USBD_LL_Suspend>
 80044e4:	69a3      	ldr	r3, [r4, #24]
 80044e6:	b123      	cbz	r3, 80044f2 <HAL_PCD_SuspendCallback+0x1a>
 80044e8:	4a02      	ldr	r2, [pc, #8]	; (80044f4 <HAL_PCD_SuspendCallback+0x1c>)
 80044ea:	6913      	ldr	r3, [r2, #16]
 80044ec:	f043 0306 	orr.w	r3, r3, #6
 80044f0:	6113      	str	r3, [r2, #16]
 80044f2:	bd10      	pop	{r4, pc}
 80044f4:	e000ed00 	.word	0xe000ed00

080044f8 <HAL_PCD_ResumeCallback>:
 80044f8:	6983      	ldr	r3, [r0, #24]
 80044fa:	b510      	push	{r4, lr}
 80044fc:	4604      	mov	r4, r0
 80044fe:	b133      	cbz	r3, 800450e <HAL_PCD_ResumeCallback+0x16>
 8004500:	4a06      	ldr	r2, [pc, #24]	; (800451c <HAL_PCD_ResumeCallback+0x24>)
 8004502:	6913      	ldr	r3, [r2, #16]
 8004504:	f023 0306 	bic.w	r3, r3, #6
 8004508:	6113      	str	r3, [r2, #16]
 800450a:	f7fb fe93 	bl	8000234 <SystemClock_Config>
 800450e:	f8d4 02f0 	ldr.w	r0, [r4, #752]	; 0x2f0
 8004512:	e8bd 4010 	ldmia.w	sp!, {r4, lr}
 8004516:	f7ff bbe6 	b.w	8003ce6 <USBD_LL_Resume>
 800451a:	bf00      	nop
 800451c:	e000ed00 	.word	0xe000ed00

08004520 <USBD_LL_Init>:
 8004520:	b538      	push	{r3, r4, r5, lr}
 8004522:	4c20      	ldr	r4, [pc, #128]	; (80045a4 <USBD_LL_Init+0x84>)
 8004524:	4605      	mov	r5, r0
 8004526:	f8c4 02f0 	str.w	r0, [r4, #752]	; 0x2f0
 800452a:	f8c0 42c4 	str.w	r4, [r0, #708]	; 0x2c4
 800452e:	f7fd f9b7 	bl	80018a0 <HAL_PWREx_EnableVddUSB>
 8004532:	2308      	movs	r3, #8
 8004534:	4a1c      	ldr	r2, [pc, #112]	; (80045a8 <USBD_LL_Init+0x88>)
 8004536:	4620      	mov	r0, r4
 8004538:	e9c4 2300 	strd	r2, r3, [r4]
 800453c:	2302      	movs	r3, #2
 800453e:	60a3      	str	r3, [r4, #8]
 8004540:	6123      	str	r3, [r4, #16]
 8004542:	2300      	movs	r3, #0
 8004544:	e9c4 3305 	strd	r3, r3, [r4, #20]
 8004548:	e9c4 3307 	strd	r3, r3, [r4, #28]
 800454c:	f7fc fb10 	bl	8000b70 <HAL_PCD_Init>
 8004550:	b108      	cbz	r0, 8004556 <USBD_LL_Init+0x36>
 8004552:	f7fb ff55 	bl	8000400 <Error_Handler>
 8004556:	2200      	movs	r2, #0
 8004558:	2318      	movs	r3, #24
 800455a:	4611      	mov	r1, r2
 800455c:	f8d5 02c4 	ldr.w	r0, [r5, #708]	; 0x2c4
 8004560:	f7fd f965 	bl	800182e <HAL_PCDEx_PMAConfig>
 8004564:	2358      	movs	r3, #88	; 0x58
 8004566:	2200      	movs	r2, #0
 8004568:	2180      	movs	r1, #128	; 0x80
 800456a:	f8d5 02c4 	ldr.w	r0, [r5, #708]	; 0x2c4
 800456e:	f7fd f95e 	bl	800182e <HAL_PCDEx_PMAConfig>
 8004572:	23c0      	movs	r3, #192	; 0xc0
 8004574:	2200      	movs	r2, #0
 8004576:	2181      	movs	r1, #129	; 0x81
 8004578:	f8d5 02c4 	ldr.w	r0, [r5, #708]	; 0x2c4
 800457c:	f7fd f957 	bl	800182e <HAL_PCDEx_PMAConfig>
 8004580:	f44f 7388 	mov.w	r3, #272	; 0x110
 8004584:	2200      	movs	r2, #0
 8004586:	2101      	movs	r1, #1
 8004588:	f8d5 02c4 	ldr.w	r0, [r5, #708]	; 0x2c4
 800458c:	f7fd f94f 	bl	800182e <HAL_PCDEx_PMAConfig>
 8004590:	f44f 7380 	mov.w	r3, #256	; 0x100
 8004594:	2200      	movs	r2, #0
 8004596:	2182      	movs	r1, #130	; 0x82
 8004598:	f8d5 02c4 	ldr.w	r0, [r5, #708]	; 0x2c4
 800459c:	f7fd f947 	bl	800182e <HAL_PCDEx_PMAConfig>
 80045a0:	2000      	movs	r0, #0
 80045a2:	bd38      	pop	{r3, r4, r5, pc}
 80045a4:	20001a10 	.word	0x20001a10
 80045a8:	4000d400 	.word	0x4000d400

080045ac <USBD_LL_Start>:
 80045ac:	b508      	push	{r3, lr}
 80045ae:	f8d0 02c4 	ldr.w	r0, [r0, #708]	; 0x2c4
 80045b2:	f7fc fb3b 	bl	8000c2c <HAL_PCD_Start>
 80045b6:	2803      	cmp	r0, #3
 80045b8:	bf96      	itet	ls
 80045ba:	4b02      	ldrls	r3, [pc, #8]	; (80045c4 <USBD_LL_Start+0x18>)
 80045bc:	2003      	movhi	r0, #3
 80045be:	5c18      	ldrbls	r0, [r3, r0]
 80045c0:	bd08      	pop	{r3, pc}
 80045c2:	bf00      	nop
 80045c4:	08004812 	.word	0x08004812

080045c8 <USBD_LL_OpenEP>:
 80045c8:	b510      	push	{r4, lr}
 80045ca:	4614      	mov	r4, r2
 80045cc:	f8d0 02c4 	ldr.w	r0, [r0, #708]	; 0x2c4
 80045d0:	461a      	mov	r2, r3
 80045d2:	4623      	mov	r3, r4
 80045d4:	f7fd f832 	bl	800163c <HAL_PCD_EP_Open>
 80045d8:	2803      	cmp	r0, #3
 80045da:	bf96      	itet	ls
 80045dc:	4b01      	ldrls	r3, [pc, #4]	; (80045e4 <USBD_LL_OpenEP+0x1c>)
 80045de:	2003      	movhi	r0, #3
 80045e0:	5c18      	ldrbls	r0, [r3, r0]
 80045e2:	bd10      	pop	{r4, pc}
 80045e4:	08004812 	.word	0x08004812

080045e8 <USBD_LL_CloseEP>:
 80045e8:	b508      	push	{r3, lr}
 80045ea:	f8d0 02c4 	ldr.w	r0, [r0, #708]	; 0x2c4
 80045ee:	f7fd f857 	bl	80016a0 <HAL_PCD_EP_Close>
 80045f2:	2803      	cmp	r0, #3
 80045f4:	bf96      	itet	ls
 80045f6:	4b02      	ldrls	r3, [pc, #8]	; (8004600 <USBD_LL_CloseEP+0x18>)
 80045f8:	2003      	movhi	r0, #3
 80045fa:	5c18      	ldrbls	r0, [r3, r0]
 80045fc:	bd08      	pop	{r3, pc}
 80045fe:	bf00      	nop
 8004600:	08004812 	.word	0x08004812

08004604 <USBD_LL_StallEP>:
 8004604:	b508      	push	{r3, lr}
 8004606:	f8d0 02c4 	ldr.w	r0, [r0, #708]	; 0x2c4
 800460a:	f7fd f8ae 	bl	800176a <HAL_PCD_EP_SetStall>
 800460e:	2803      	cmp	r0, #3
 8004610:	bf96      	itet	ls
 8004612:	4b02      	ldrls	r3, [pc, #8]	; (800461c <USBD_LL_StallEP+0x18>)
 8004614:	2003      	movhi	r0, #3
 8004616:	5c18      	ldrbls	r0, [r3, r0]
 8004618:	bd08      	pop	{r3, pc}
 800461a:	bf00      	nop
 800461c:	08004812 	.word	0x08004812

08004620 <USBD_LL_ClearStallEP>:
 8004620:	b508      	push	{r3, lr}
 8004622:	f8d0 02c4 	ldr.w	r0, [r0, #708]	; 0x2c4
 8004626:	f7fd f8d0 	bl	80017ca <HAL_PCD_EP_ClrStall>
 800462a:	2803      	cmp	r0, #3
 800462c:	bf96      	itet	ls
 800462e:	4b02      	ldrls	r3, [pc, #8]	; (8004638 <USBD_LL_ClearStallEP+0x18>)
 8004630:	2003      	movhi	r0, #3
 8004632:	5c18      	ldrbls	r0, [r3, r0]
 8004634:	bd08      	pop	{r3, pc}
 8004636:	bf00      	nop
 8004638:	08004812 	.word	0x08004812

0800463c <USBD_LL_IsStallEP>:
 800463c:	2328      	movs	r3, #40	; 0x28
 800463e:	f011 0f80 	tst.w	r1, #128	; 0x80
 8004642:	f8d0 22c4 	ldr.w	r2, [r0, #708]	; 0x2c4
 8004646:	bf1b      	ittet	ne
 8004648:	f001 017f 	andne.w	r1, r1, #127	; 0x7f
 800464c:	fb01 3103 	mlane	r1, r1, r3, r3
 8004650:	fb03 2101 	mlaeq	r1, r3, r1, r2
 8004654:	1889      	addne	r1, r1, r2
 8004656:	bf14      	ite	ne
 8004658:	7888      	ldrbne	r0, [r1, #2]
 800465a:	f891 016a 	ldrbeq.w	r0, [r1, #362]	; 0x16a
 800465e:	4770      	bx	lr

08004660 <USBD_LL_SetUSBAddress>:
 8004660:	b508      	push	{r3, lr}
 8004662:	f8d0 02c4 	ldr.w	r0, [r0, #708]	; 0x2c4
 8004666:	f7fc faf6 	bl	8000c56 <HAL_PCD_SetAddress>
 800466a:	2803      	cmp	r0, #3
 800466c:	bf96      	itet	ls
 800466e:	4b02      	ldrls	r3, [pc, #8]	; (8004678 <USBD_LL_SetUSBAddress+0x18>)
 8004670:	2003      	movhi	r0, #3
 8004672:	5c18      	ldrbls	r0, [r3, r0]
 8004674:	bd08      	pop	{r3, pc}
 8004676:	bf00      	nop
 8004678:	08004812 	.word	0x08004812

0800467c <USBD_LL_Transmit>:
 800467c:	b508      	push	{r3, lr}
 800467e:	f8d0 02c4 	ldr.w	r0, [r0, #708]	; 0x2c4
 8004682:	f7fd f854 	bl	800172e <HAL_PCD_EP_Transmit>
 8004686:	2803      	cmp	r0, #3
 8004688:	bf96      	itet	ls
 800468a:	4b02      	ldrls	r3, [pc, #8]	; (8004694 <USBD_LL_Transmit+0x18>)
 800468c:	2003      	movhi	r0, #3
 800468e:	5c18      	ldrbls	r0, [r3, r0]
 8004690:	bd08      	pop	{r3, pc}
 8004692:	bf00      	nop
 8004694:	08004812 	.word	0x08004812

08004698 <USBD_LL_PrepareReceive>:
 8004698:	b508      	push	{r3, lr}
 800469a:	f8d0 02c4 	ldr.w	r0, [r0, #708]	; 0x2c4
 800469e:	f7fd f828 	bl	80016f2 <HAL_PCD_EP_Receive>
 80046a2:	2803      	cmp	r0, #3
 80046a4:	bf96      	itet	ls
 80046a6:	4b02      	ldrls	r3, [pc, #8]	; (80046b0 <USBD_LL_PrepareReceive+0x18>)
 80046a8:	2003      	movhi	r0, #3
 80046aa:	5c18      	ldrbls	r0, [r3, r0]
 80046ac:	bd08      	pop	{r3, pc}
 80046ae:	bf00      	nop
 80046b0:	08004812 	.word	0x08004812

080046b4 <USBD_LL_GetRxDataSize>:
 80046b4:	f8d0 02c4 	ldr.w	r0, [r0, #708]	; 0x2c4
 80046b8:	f7fd b831 	b.w	800171e <HAL_PCD_EP_GetRxCount>

080046bc <HAL_PCDEx_LPM_Callback>:
 80046bc:	b510      	push	{r4, lr}
 80046be:	4604      	mov	r4, r0
 80046c0:	b111      	cbz	r1, 80046c8 <HAL_PCDEx_LPM_Callback+0xc>
 80046c2:	2901      	cmp	r1, #1
 80046c4:	d00f      	beq.n	80046e6 <HAL_PCDEx_LPM_Callback+0x2a>
 80046c6:	bd10      	pop	{r4, pc}
 80046c8:	6983      	ldr	r3, [r0, #24]
 80046ca:	b133      	cbz	r3, 80046da <HAL_PCDEx_LPM_Callback+0x1e>
 80046cc:	f7fb fdb2 	bl	8000234 <SystemClock_Config>
 80046d0:	4a0b      	ldr	r2, [pc, #44]	; (8004700 <HAL_PCDEx_LPM_Callback+0x44>)
 80046d2:	6913      	ldr	r3, [r2, #16]
 80046d4:	f023 0306 	bic.w	r3, r3, #6
 80046d8:	6113      	str	r3, [r2, #16]
 80046da:	f8d4 02f0 	ldr.w	r0, [r4, #752]	; 0x2f0
 80046de:	e8bd 4010 	ldmia.w	sp!, {r4, lr}
 80046e2:	f7ff bb00 	b.w	8003ce6 <USBD_LL_Resume>
 80046e6:	f8d0 02f0 	ldr.w	r0, [r0, #752]	; 0x2f0
 80046ea:	f7ff faf2 	bl	8003cd2 <USBD_LL_Suspend>
 80046ee:	69a3      	ldr	r3, [r4, #24]
 80046f0:	2b00      	cmp	r3, #0
 80046f2:	d0e8      	beq.n	80046c6 <HAL_PCDEx_LPM_Callback+0xa>
 80046f4:	4a02      	ldr	r2, [pc, #8]	; (8004700 <HAL_PCDEx_LPM_Callback+0x44>)
 80046f6:	6913      	ldr	r3, [r2, #16]
 80046f8:	f043 0306 	orr.w	r3, r3, #6
 80046fc:	6113      	str	r3, [r2, #16]
 80046fe:	e7e2      	b.n	80046c6 <HAL_PCDEx_LPM_Callback+0xa>
 8004700:	e000ed00 	.word	0xe000ed00

08004704 <USBD_static_malloc>:
 8004704:	4800      	ldr	r0, [pc, #0]	; (8004708 <USBD_static_malloc+0x4>)
 8004706:	4770      	bx	lr
 8004708:	200001a4 	.word	0x200001a4

0800470c <USBD_static_free>:
 800470c:	4770      	bx	lr
	...

08004710 <__libc_init_array>:
 8004710:	b570      	push	{r4, r5, r6, lr}
 8004712:	4d0d      	ldr	r5, [pc, #52]	; (8004748 <__libc_init_array+0x38>)
 8004714:	2600      	movs	r6, #0
 8004716:	4c0d      	ldr	r4, [pc, #52]	; (800474c <__libc_init_array+0x3c>)
 8004718:	1b64      	subs	r4, r4, r5
 800471a:	10a4      	asrs	r4, r4, #2
 800471c:	42a6      	cmp	r6, r4
 800471e:	d109      	bne.n	8004734 <__libc_init_array+0x24>
 8004720:	4d0b      	ldr	r5, [pc, #44]	; (8004750 <__libc_init_array+0x40>)
 8004722:	2600      	movs	r6, #0
 8004724:	4c0b      	ldr	r4, [pc, #44]	; (8004754 <__libc_init_array+0x44>)
 8004726:	f000 f81f 	bl	8004768 <_init>
 800472a:	1b64      	subs	r4, r4, r5
 800472c:	10a4      	asrs	r4, r4, #2
 800472e:	42a6      	cmp	r6, r4
 8004730:	d105      	bne.n	800473e <__libc_init_array+0x2e>
 8004732:	bd70      	pop	{r4, r5, r6, pc}
 8004734:	f855 3b04 	ldr.w	r3, [r5], #4
 8004738:	3601      	adds	r6, #1
 800473a:	4798      	blx	r3
 800473c:	e7ee      	b.n	800471c <__libc_init_array+0xc>
 800473e:	f855 3b04 	ldr.w	r3, [r5], #4
 8004742:	3601      	adds	r6, #1
 8004744:	4798      	blx	r3
 8004746:	e7f2      	b.n	800472e <__libc_init_array+0x1e>
 8004748:	08004818 	.word	0x08004818
 800474c:	08004818 	.word	0x08004818
 8004750:	08004818 	.word	0x08004818
 8004754:	0800481c 	.word	0x0800481c

08004758 <memset>:
 8004758:	4402      	add	r2, r0
 800475a:	4603      	mov	r3, r0
 800475c:	4293      	cmp	r3, r2
 800475e:	d100      	bne.n	8004762 <memset+0xa>
 8004760:	4770      	bx	lr
 8004762:	f803 1b01 	strb.w	r1, [r3], #1
 8004766:	e7f9      	b.n	800475c <memset+0x4>

08004768 <_init>:
 8004768:	b5f8      	push	{r3, r4, r5, r6, r7, lr}
 800476a:	bf00      	nop
 800476c:	bcf8      	pop	{r3, r4, r5, r6, r7}
 800476e:	bc08      	pop	{r3}
 8004770:	469e      	mov	lr, r3
 8004772:	4770      	bx	lr

08004774 <_fini>:
 8004774:	b5f8      	push	{r3, r4, r5, r6, r7, lr}
 8004776:	bf00      	nop
 8004778:	bcf8      	pop	{r3, r4, r5, r6, r7}
 800477a:	bc08      	pop	{r3}
 800477c:	469e      	mov	lr, r3
 800477e:	4770      	bx	lr
